Component: ARM Compiler 6.15 Tool: armlink [5dd79300]

==============================================================================

Section Cross References

    startup_py32f030xx.o(RESET) refers to startup_py32f030xx.o(STACK) for __initial_sp
    startup_py32f030xx.o(RESET) refers to startup_py32f030xx.o(.text) for Reset_Handler
    startup_py32f030xx.o(RESET) refers to py32f0xx_it.o(.text.NMI_Handler) for NMI_Handler
    startup_py32f030xx.o(RESET) refers to py32f0xx_it.o(.text.HardFault_Handler) for HardFault_Handler
    startup_py32f030xx.o(RESET) refers to py32f0xx_it.o(.text.SVC_Handler) for SVC_Handler
    startup_py32f030xx.o(RESET) refers to py32f0xx_it.o(.text.PendSV_Handler) for PendSV_Handler
    startup_py32f030xx.o(RESET) refers to py32f0xx_it.o(.text.SysTick_Handler) for SysTick_Handler
    startup_py32f030xx.o(RESET) refers to py32f0xx_bsp_exti.o(.text.EXTI2_3_IRQHandler) for EXTI2_3_IRQHandler
    startup_py32f030xx.o(RESET) refers to py32f0xx_bsp_exti.o(.text.EXTI4_15_IRQHandler) for EXTI4_15_IRQHandler
    startup_py32f030xx.o(RESET) refers to py32f0xx_bsp_i2c.o(.text.I2C1_IRQHandler) for I2C1_IRQHandler
    startup_py32f030xx.o(RESET) refers to py32f0xx_bsp_usart.o(.text.USART1_IRQHandler) for USART1_IRQHandler
    startup_py32f030xx.o(.text) refers to system_py32f0xx.o(.text.SystemInit) for SystemInit
    startup_py32f030xx.o(.text) refers to entry.o(.ARM.Collect$$$$00000000) for __main
    system_py32f0xx.o(.text.SystemCoreClockUpdate) refers to system_py32f0xx.o(.rodata.HSIFreqTable) for HSIFreqTable
    system_py32f0xx.o(.text.SystemCoreClockUpdate) refers to system_py32f0xx.o(.data.SystemCoreClock) for SystemCoreClock
    system_py32f0xx.o(.text.SystemCoreClockUpdate) refers to system_py32f0xx.o(.rodata.AHBPrescTable) for AHBPrescTable
    system_py32f0xx.o(.ARM.exidx.text.SystemCoreClockUpdate) refers to system_py32f0xx.o(.text.SystemCoreClockUpdate) for [Anonymous Symbol]
    system_py32f0xx.o(.ARM.exidx.text.SystemInit) refers to system_py32f0xx.o(.text.SystemInit) for [Anonymous Symbol]
    system_py32f0xx.o(.text.$Sub$$main) refers to main.o(.text.main) for $Super$$main
    system_py32f0xx.o(.text.$Sub$$main) refers to system_py32f0xx.o(.ARM.__at_0x20000000) for VECT_SRAM_TAB
    system_py32f0xx.o(.ARM.exidx.text.$Sub$$main) refers to system_py32f0xx.o(.text.$Sub$$main) for [Anonymous Symbol]
    py32f0xx_it.o(.ARM.exidx.text.NMI_Handler) refers to py32f0xx_it.o(.text.NMI_Handler) for [Anonymous Symbol]
    py32f0xx_it.o(.ARM.exidx.text.HardFault_Handler) refers to py32f0xx_it.o(.text.HardFault_Handler) for [Anonymous Symbol]
    py32f0xx_it.o(.ARM.exidx.text.SVC_Handler) refers to py32f0xx_it.o(.text.SVC_Handler) for [Anonymous Symbol]
    py32f0xx_it.o(.ARM.exidx.text.PendSV_Handler) refers to py32f0xx_it.o(.text.PendSV_Handler) for [Anonymous Symbol]
    py32f0xx_it.o(.text.SysTick_Handler) refers to py32f0xx_it.o(.bss.millis) for millis
    py32f0xx_it.o(.ARM.exidx.text.SysTick_Handler) refers to py32f0xx_it.o(.text.SysTick_Handler) for [Anonymous Symbol]
    bsp_py32f030x6.o(.text.SysInit) refers to py32f0xx_bsp_rcc.o(.text.BSP_SystemClockConfig) for BSP_SystemClockConfig
    bsp_py32f030x6.o(.text.SysInit) refers to py32f0xx_bsp_pwr.o(.text.BSP_PWR_Config) for BSP_PWR_Config
    bsp_py32f030x6.o(.text.SysInit) refers to py32f0xx_bsp_gpio.o(.text.BSP_GPIO_Config) for BSP_GPIO_Config
    bsp_py32f030x6.o(.text.SysInit) refers to py32f0xx_bsp_exti.o(.text.BSP_EXTI_Config) for BSP_EXTI_Config
    bsp_py32f030x6.o(.text.SysInit) refers to py32f0xx_bsp_tim.o(.text.BSP_TIM_config) for BSP_TIM_config
    bsp_py32f030x6.o(.text.SysInit) refers to py32f0xx_bsp_tim.o(.text.BSP_PWMChannelConfig) for BSP_PWMChannelConfig
    bsp_py32f030x6.o(.text.SysInit) refers to py32f0xx_bsp_usart.o(.text.BSP_USART_Config) for BSP_USART_Config
    bsp_py32f030x6.o(.text.SysInit) refers to py32f0xx_bsp_i2c.o(.text.BSP_I2C_Config) for BSP_I2C_Config
    bsp_py32f030x6.o(.ARM.exidx.text.SysInit) refers to bsp_py32f030x6.o(.text.SysInit) for [Anonymous Symbol]
    main.o(.text.thread_app) refers to sw6306.o(.text.SW6306_Init) for SW6306_Init
    main.o(.text.thread_app) refers to py32f0xx_bsp_usart.o(.text.uprintf) for uprintf
    main.o(.text.thread_app) refers to sw6306.o(.text.SW6306_ADCLoad) for SW6306_ADCLoad
    main.o(.text.thread_app) refers to sw6306.o(.text.SW6306_PortStatusLoad) for SW6306_PortStatusLoad
    main.o(.text.thread_app) refers to sw6306.o(.text.SW6306_StatusLoad) for SW6306_StatusLoad
    main.o(.text.thread_app) refers to sw6306.o(.text.SW6306_PowerLoad) for SW6306_PowerLoad
    main.o(.text.thread_app) refers to sw6306.o(.text.SW6306_CapacityLoad) for SW6306_CapacityLoad
    main.o(.text.thread_app) refers to sw6306.o(.text.SW6306_IsInitialized) for SW6306_IsInitialized
    main.o(.text.thread_app) refers to sw6306.o(.text.SW6306_IsCharging) for SW6306_IsCharging
    main.o(.text.thread_app) refers to sw6306.o(.text.SW6306_ReadIBUS) for SW6306_ReadIBUS
    main.o(.text.thread_app) refers to sw6306.o(.text.SW6306_IsPortA1ON) for SW6306_IsPortA1ON
    main.o(.text.thread_app) refers to sw6306.o(.text.SW6306_IsPortA2ON) for SW6306_IsPortA2ON
    main.o(.text.thread_app) refers to sw6306.o(.text.SW6306_ByteWrite) for SW6306_ByteWrite
    main.o(.text.thread_app) refers to sw6306.o(.text.SW6306_ReadIBAT) for SW6306_ReadIBAT
    main.o(.text.thread_app) refers to sw6306.o(.text.SW6306_Click) for SW6306_Click
    main.o(.text.thread_app) refers to sw6306.o(.text.SW6306_IsPortC1ON) for SW6306_IsPortC1ON
    main.o(.text.thread_app) refers to sw6306.o(.text.SW6306_IsPortC2ON) for SW6306_IsPortC2ON
    main.o(.text.thread_app) refers to sw6306.o(.text.SW6306_IsDischarging) for SW6306_IsDischarging
    main.o(.text.thread_app) refers to sw6306.o(.text.SW6306_IsFullCharged) for SW6306_IsFullCharged
    main.o(.text.thread_app) refers to sw6306.o(.text.SW6306_ReadCapacity) for SW6306_ReadCapacity
    main.o(.text.thread_app) refers to sw6306.o(.text.SW6306_ReadVBUS) for SW6306_ReadVBUS
    main.o(.text.thread_app) refers to sw6306.o(.text.SW6306_ReadVBAT) for SW6306_ReadVBAT
    main.o(.text.thread_app) refers to sw6306.o(.text.SW6306_ReadTNTC) for SW6306_ReadTNTC
    main.o(.text.thread_app) refers to sw6306.o(.text.SW6306_ReadTCHIP) for SW6306_ReadTCHIP
    main.o(.text.thread_app) refers to f2d.o(.text) for __aeabi_f2d
    main.o(.text.thread_app) refers to sw6306.o(.text.SW6306_ForceOff) for SW6306_ForceOff
    main.o(.text.thread_app) refers to main.o(.text.__NVIC_SystemReset) for __NVIC_SystemReset
    main.o(.text.thread_app) refers to main.o(.bss.main_looping) for main_looping
    main.o(.text.thread_app) refers to py32f0xx_it.o(.bss.millis) for millis
    main.o(.text.thread_app) refers to main.o(.bss.cd_sleep) for cd_sleep
    main.o(.text.thread_app) refers to main.o(.rodata.str1.1) for .L.str.7
    main.o(.text.thread_app) refers to main.o(.bss.forceoff) for forceoff
    main.o(.text.thread_app) refers to py32f0xx_bsp_exti.o(.bss.inttrig) for inttrig
    main.o(.text.thread_app) refers to py32f0xx_bsp_exti.o(.bss.keytrig) for keytrig
    main.o(.text.thread_app) refers to main.o(.bss.thread_app.endmillis) for [Anonymous Symbol]
    main.o(.ARM.exidx.text.thread_app) refers to main.o(.text.thread_app) for [Anonymous Symbol]
    main.o(.ARM.exidx.text.__NVIC_SystemReset) refers to main.o(.text.__NVIC_SystemReset) for [Anonymous Symbol]
    main.o(.text.thread_echo) refers to py32f0xx_bsp_usart.o(.text.USART_getvalidnum) for USART_getvalidnum
    main.o(.text.thread_echo) refers to py32f0xx_bsp_usart.o(.text.USART_bufread) for USART_bufread
    main.o(.text.thread_echo) refers to py32f0xx_bsp_usart.o(.text.USART_bufsend) for USART_bufsend
    main.o(.ARM.exidx.text.thread_echo) refers to main.o(.text.thread_echo) for [Anonymous Symbol]
    main.o(.text.thread_key) refers to debounce_key.o(.text.Key_DebounceService_10ms) for Key_DebounceService_10ms
    main.o(.text.thread_key) refers to debounce_key.o(.text.Key_Scand) for Key_Scand
    main.o(.text.thread_key) refers to debounce_key.o(.text.Key_EdgeDetect) for Key_EdgeDetect
    main.o(.text.thread_key) refers to py32f0xx_bsp_usart.o(.text.uprintf) for uprintf
    main.o(.text.thread_key) refers to py32f0xx_bsp_tim.o(.text.LED_PWM_Set) for LED_PWM_Set
    main.o(.text.thread_key) refers to main.o(.text.LL_GPIO_ResetOutputPin) for LL_GPIO_ResetOutputPin
    main.o(.text.thread_key) refers to main.o(.text.LL_GPIO_SetOutputPin) for LL_GPIO_SetOutputPin
    main.o(.text.thread_key) refers to sw6306.o(.text.SW6306_IsBatteryDepleted) for SW6306_IsBatteryDepleted
    main.o(.text.thread_key) refers to sw6306.o(.text.SW6306_IsOverHeated) for SW6306_IsOverHeated
    main.o(.text.thread_key) refers to py32f0xx_ll_utils.o(.text.LL_mDelay) for LL_mDelay
    main.o(.text.thread_key) refers to main.o(.text.__NVIC_SystemReset) for __NVIC_SystemReset
    main.o(.text.thread_key) refers to main.o(.bss.thread_key.cnt) for [Anonymous Symbol]
    main.o(.text.thread_key) refers to main.o(.bss.thread_key.step) for [Anonymous Symbol]
    main.o(.text.thread_key) refers to main.o(.bss.thread_key.holding) for [Anonymous Symbol]
    main.o(.text.thread_key) refers to main.o(.bss.thread_key.ledsta) for [Anonymous Symbol]
    main.o(.text.thread_key) refers to main.o(.bss.forceoff) for forceoff
    main.o(.text.thread_key) refers to main.o(.bss.thread_key.leddir) for [Anonymous Symbol]
    main.o(.text.thread_key) refers to main.o(.bss.thread_key.ledind) for [Anonymous Symbol]
    main.o(.text.thread_key) refers to main.o(.bss.thread_key.cd_reset) for [Anonymous Symbol]
    main.o(.text.thread_key) refers to main.o(.bss.cd_sleep) for cd_sleep
    main.o(.text.thread_key) refers to py32f0xx_it.o(.bss.millis) for millis
    main.o(.text.thread_key) refers to main.o(.bss.thread_key.endmillis) for [Anonymous Symbol]
    main.o(.ARM.exidx.text.thread_key) refers to main.o(.text.thread_key) for [Anonymous Symbol]
    main.o(.ARM.exidx.text.LL_GPIO_ResetOutputPin) refers to main.o(.text.LL_GPIO_ResetOutputPin) for [Anonymous Symbol]
    main.o(.ARM.exidx.text.LL_GPIO_SetOutputPin) refers to main.o(.text.LL_GPIO_SetOutputPin) for [Anonymous Symbol]
    main.o(.text.thread_trig) refers to py32f0xx_bsp_usart.o(.text.uprintf) for uprintf
    main.o(.text.thread_trig) refers to py32f0xx_bsp_exti.o(.bss.inttrig) for inttrig
    main.o(.text.thread_trig) refers to py32f0xx_bsp_exti.o(.bss.keytrig) for keytrig
    main.o(.ARM.exidx.text.thread_trig) refers to main.o(.text.thread_trig) for [Anonymous Symbol]
    main.o(.text.main) refers to bsp_py32f030x6.o(.text.SysInit) for SysInit
    main.o(.text.main) refers to debounce_key.o(.text.Key_Init) for Key_Init
    main.o(.text.main) refers to py32f0xx_ll_utils.o(.text.LL_mDelay) for LL_mDelay
    main.o(.text.main) refers to py32f0xx_bsp_usart.o(.text.uprintf) for uprintf
    main.o(.text.main) refers to main.o(.text.thread_app) for thread_app
    main.o(.text.main) refers to main.o(.text.thread_echo) for thread_echo
    main.o(.text.main) refers to main.o(.text.thread_key) for thread_key
    main.o(.text.main) refers to main.o(.text.thread_trig) for thread_trig
    main.o(.text.main) refers to main.o(.text.LL_GPIO_IsInputPinSet) for LL_GPIO_IsInputPinSet
    main.o(.text.main) refers to sw6306.o(.text.SW6306_LPSet) for SW6306_LPSet
    main.o(.text.main) refers to main.o(.text.LL_SYSTICK_DisableIT) for LL_SYSTICK_DisableIT
    main.o(.text.main) refers to main.o(.text.LL_LPM_EnableDeepSleep) for LL_LPM_EnableDeepSleep
    main.o(.text.main) refers to main.o(.text.LL_SYSTICK_EnableIT) for LL_SYSTICK_EnableIT
    main.o(.text.main) refers to main.o(.text.LL_LPM_EnableSleep) for LL_LPM_EnableSleep
    main.o(.text.main) refers to sw6306.o(.text.SW6306_Unlock) for SW6306_Unlock
    main.o(.text.main) refers to main.o(.bss.cd_sleep) for cd_sleep
    main.o(.text.main) refers to main.o(.bss.pt2) for pt2
    main.o(.text.main) refers to main.o(.bss.pt1) for pt1
    main.o(.text.main) refers to main.o(.bss.pt3) for pt3
    main.o(.text.main) refers to main.o(.bss.pt4) for pt4
    main.o(.text.main) refers to main.o(.bss.main_looping) for main_looping
    main.o(.ARM.exidx.text.main) refers to main.o(.text.main) for [Anonymous Symbol]
    main.o(.ARM.exidx.text.LL_GPIO_IsInputPinSet) refers to main.o(.text.LL_GPIO_IsInputPinSet) for [Anonymous Symbol]
    main.o(.ARM.exidx.text.LL_SYSTICK_DisableIT) refers to main.o(.text.LL_SYSTICK_DisableIT) for [Anonymous Symbol]
    main.o(.ARM.exidx.text.LL_LPM_EnableDeepSleep) refers to main.o(.text.LL_LPM_EnableDeepSleep) for [Anonymous Symbol]
    main.o(.ARM.exidx.text.LL_SYSTICK_EnableIT) refers to main.o(.text.LL_SYSTICK_EnableIT) for [Anonymous Symbol]
    main.o(.ARM.exidx.text.LL_LPM_EnableSleep) refers to main.o(.text.LL_LPM_EnableSleep) for [Anonymous Symbol]
    main.o(.ARM.exidx.text.APP_ErrorHandler) refers to main.o(.text.APP_ErrorHandler) for [Anonymous Symbol]
    debounce_key.o(.text.KEY_GetIO) refers to debounce_key.o(.text.LL_GPIO_IsInputPinSet) for LL_GPIO_IsInputPinSet
    debounce_key.o(.ARM.exidx.text.KEY_GetIO) refers to debounce_key.o(.text.KEY_GetIO) for [Anonymous Symbol]
    debounce_key.o(.text.Key_Scand) refers to debounce_key.o(.text.KEY_GetIO) for KEY_GetIO
    debounce_key.o(.text.Key_Scand) refers to debounce_key.o(.bss.KeyValue_Array) for [Anonymous Symbol]
    debounce_key.o(.ARM.exidx.text.Key_Scand) refers to debounce_key.o(.text.Key_Scand) for [Anonymous Symbol]
    debounce_key.o(.text.Key_DebounceService_10ms) refers to debounce_key.o(.bss.KeyValue_Array) for [Anonymous Symbol]
    debounce_key.o(.ARM.exidx.text.Key_DebounceService_10ms) refers to debounce_key.o(.text.Key_DebounceService_10ms) for [Anonymous Symbol]
    debounce_key.o(.text.Key_Init) refers to debounce_key.o(.bss.KeyValue_Array) for [Anonymous Symbol]
    debounce_key.o(.ARM.exidx.text.Key_Init) refers to debounce_key.o(.text.Key_Init) for [Anonymous Symbol]
    debounce_key.o(.text.Key_EdgeDetect) refers to debounce_key.o(.bss.KeyValue_Array) for [Anonymous Symbol]
    debounce_key.o(.ARM.exidx.text.Key_EdgeDetect) refers to debounce_key.o(.text.Key_EdgeDetect) for [Anonymous Symbol]
    debounce_key.o(.text.KEY_GetState) refers to debounce_key.o(.bss.KeyValue_Array) for [Anonymous Symbol]
    debounce_key.o(.ARM.exidx.text.KEY_GetState) refers to debounce_key.o(.text.KEY_GetState) for [Anonymous Symbol]
    debounce_key.o(.ARM.exidx.text.LL_GPIO_IsInputPinSet) refers to debounce_key.o(.text.LL_GPIO_IsInputPinSet) for [Anonymous Symbol]
    debounce_key.o(.rodata.KeyInfo_Array) refers to debounce_key.o(.text.KEY_GetIO) for KEY_GetIO
    py32f0xx_ll_adc.o(.text.LL_ADC_CommonDeInit) refers to py32f0xx_ll_adc.o(.text.LL_APB1_GRP2_ForceReset) for LL_APB1_GRP2_ForceReset
    py32f0xx_ll_adc.o(.text.LL_ADC_CommonDeInit) refers to py32f0xx_ll_adc.o(.text.LL_APB1_GRP2_ReleaseReset) for LL_APB1_GRP2_ReleaseReset
    py32f0xx_ll_adc.o(.ARM.exidx.text.LL_ADC_CommonDeInit) refers to py32f0xx_ll_adc.o(.text.LL_ADC_CommonDeInit) for [Anonymous Symbol]
    py32f0xx_ll_adc.o(.ARM.exidx.text.LL_APB1_GRP2_ForceReset) refers to py32f0xx_ll_adc.o(.text.LL_APB1_GRP2_ForceReset) for [Anonymous Symbol]
    py32f0xx_ll_adc.o(.ARM.exidx.text.LL_APB1_GRP2_ReleaseReset) refers to py32f0xx_ll_adc.o(.text.LL_APB1_GRP2_ReleaseReset) for [Anonymous Symbol]
    py32f0xx_ll_adc.o(.text.LL_ADC_DeInit) refers to py32f0xx_ll_adc.o(.text.LL_ADC_IsEnabled) for LL_ADC_IsEnabled
    py32f0xx_ll_adc.o(.text.LL_ADC_DeInit) refers to py32f0xx_ll_adc.o(.text.LL_ADC_REG_SetTriggerSource) for LL_ADC_REG_SetTriggerSource
    py32f0xx_ll_adc.o(.text.LL_ADC_DeInit) refers to py32f0xx_ll_adc.o(.text.LL_ADC_REG_IsConversionOngoing) for LL_ADC_REG_IsConversionOngoing
    py32f0xx_ll_adc.o(.text.LL_ADC_DeInit) refers to py32f0xx_ll_adc.o(.text.LL_ADC_REG_IsStopConversionOngoing) for LL_ADC_REG_IsStopConversionOngoing
    py32f0xx_ll_adc.o(.text.LL_ADC_DeInit) refers to py32f0xx_ll_adc.o(.text.LL_ADC_REG_StopConversion) for LL_ADC_REG_StopConversion
    py32f0xx_ll_adc.o(.text.LL_ADC_DeInit) refers to py32f0xx_ll_adc.o(.text.LL_ADC_REG_StartConversion) for LL_ADC_REG_StartConversion
    py32f0xx_ll_adc.o(.ARM.exidx.text.LL_ADC_DeInit) refers to py32f0xx_ll_adc.o(.text.LL_ADC_DeInit) for [Anonymous Symbol]
    py32f0xx_ll_adc.o(.ARM.exidx.text.LL_ADC_IsEnabled) refers to py32f0xx_ll_adc.o(.text.LL_ADC_IsEnabled) for [Anonymous Symbol]
    py32f0xx_ll_adc.o(.ARM.exidx.text.LL_ADC_REG_SetTriggerSource) refers to py32f0xx_ll_adc.o(.text.LL_ADC_REG_SetTriggerSource) for [Anonymous Symbol]
    py32f0xx_ll_adc.o(.ARM.exidx.text.LL_ADC_REG_IsConversionOngoing) refers to py32f0xx_ll_adc.o(.text.LL_ADC_REG_IsConversionOngoing) for [Anonymous Symbol]
    py32f0xx_ll_adc.o(.ARM.exidx.text.LL_ADC_REG_IsStopConversionOngoing) refers to py32f0xx_ll_adc.o(.text.LL_ADC_REG_IsStopConversionOngoing) for [Anonymous Symbol]
    py32f0xx_ll_adc.o(.ARM.exidx.text.LL_ADC_REG_StopConversion) refers to py32f0xx_ll_adc.o(.text.LL_ADC_REG_StopConversion) for [Anonymous Symbol]
    py32f0xx_ll_adc.o(.ARM.exidx.text.LL_ADC_REG_StartConversion) refers to py32f0xx_ll_adc.o(.text.LL_ADC_REG_StartConversion) for [Anonymous Symbol]
    py32f0xx_ll_adc.o(.text.LL_ADC_Init) refers to py32f0xx_ll_adc.o(.text.LL_ADC_IsEnabled) for LL_ADC_IsEnabled
    py32f0xx_ll_adc.o(.ARM.exidx.text.LL_ADC_Init) refers to py32f0xx_ll_adc.o(.text.LL_ADC_Init) for [Anonymous Symbol]
    py32f0xx_ll_adc.o(.ARM.exidx.text.LL_ADC_StructInit) refers to py32f0xx_ll_adc.o(.text.LL_ADC_StructInit) for [Anonymous Symbol]
    py32f0xx_ll_adc.o(.text.LL_ADC_REG_Init) refers to py32f0xx_ll_adc.o(.text.LL_ADC_IsEnabled) for LL_ADC_IsEnabled
    py32f0xx_ll_adc.o(.ARM.exidx.text.LL_ADC_REG_Init) refers to py32f0xx_ll_adc.o(.text.LL_ADC_REG_Init) for [Anonymous Symbol]
    py32f0xx_ll_adc.o(.ARM.exidx.text.LL_ADC_REG_StructInit) refers to py32f0xx_ll_adc.o(.text.LL_ADC_REG_StructInit) for [Anonymous Symbol]
    py32f0xx_ll_dma.o(.text.LL_DMA_DeInit) refers to py32f0xx_ll_dma.o(.text.LL_DMA_ClearFlag_GI1) for LL_DMA_ClearFlag_GI1
    py32f0xx_ll_dma.o(.text.LL_DMA_DeInit) refers to py32f0xx_ll_dma.o(.text.LL_DMA_ClearFlag_GI2) for LL_DMA_ClearFlag_GI2
    py32f0xx_ll_dma.o(.text.LL_DMA_DeInit) refers to py32f0xx_ll_dma.o(.text.LL_DMA_ClearFlag_GI3) for LL_DMA_ClearFlag_GI3
    py32f0xx_ll_dma.o(.ARM.exidx.text.LL_DMA_DeInit) refers to py32f0xx_ll_dma.o(.text.LL_DMA_DeInit) for [Anonymous Symbol]
    py32f0xx_ll_dma.o(.ARM.exidx.text.LL_DMA_ClearFlag_GI1) refers to py32f0xx_ll_dma.o(.text.LL_DMA_ClearFlag_GI1) for [Anonymous Symbol]
    py32f0xx_ll_dma.o(.ARM.exidx.text.LL_DMA_ClearFlag_GI2) refers to py32f0xx_ll_dma.o(.text.LL_DMA_ClearFlag_GI2) for [Anonymous Symbol]
    py32f0xx_ll_dma.o(.ARM.exidx.text.LL_DMA_ClearFlag_GI3) refers to py32f0xx_ll_dma.o(.text.LL_DMA_ClearFlag_GI3) for [Anonymous Symbol]
    py32f0xx_ll_dma.o(.text.LL_DMA_Init) refers to py32f0xx_ll_dma.o(.text.LL_DMA_ConfigTransfer) for LL_DMA_ConfigTransfer
    py32f0xx_ll_dma.o(.text.LL_DMA_Init) refers to py32f0xx_ll_dma.o(.text.LL_DMA_SetMemoryAddress) for LL_DMA_SetMemoryAddress
    py32f0xx_ll_dma.o(.text.LL_DMA_Init) refers to py32f0xx_ll_dma.o(.text.LL_DMA_SetPeriphAddress) for LL_DMA_SetPeriphAddress
    py32f0xx_ll_dma.o(.text.LL_DMA_Init) refers to py32f0xx_ll_dma.o(.text.LL_DMA_SetDataLength) for LL_DMA_SetDataLength
    py32f0xx_ll_dma.o(.ARM.exidx.text.LL_DMA_Init) refers to py32f0xx_ll_dma.o(.text.LL_DMA_Init) for [Anonymous Symbol]
    py32f0xx_ll_dma.o(.text.LL_DMA_ConfigTransfer) refers to py32f0xx_ll_dma.o(.rodata.CHANNEL_OFFSET_TAB) for [Anonymous Symbol]
    py32f0xx_ll_dma.o(.ARM.exidx.text.LL_DMA_ConfigTransfer) refers to py32f0xx_ll_dma.o(.text.LL_DMA_ConfigTransfer) for [Anonymous Symbol]
    py32f0xx_ll_dma.o(.text.LL_DMA_SetMemoryAddress) refers to py32f0xx_ll_dma.o(.rodata.CHANNEL_OFFSET_TAB) for [Anonymous Symbol]
    py32f0xx_ll_dma.o(.ARM.exidx.text.LL_DMA_SetMemoryAddress) refers to py32f0xx_ll_dma.o(.text.LL_DMA_SetMemoryAddress) for [Anonymous Symbol]
    py32f0xx_ll_dma.o(.text.LL_DMA_SetPeriphAddress) refers to py32f0xx_ll_dma.o(.rodata.CHANNEL_OFFSET_TAB) for [Anonymous Symbol]
    py32f0xx_ll_dma.o(.ARM.exidx.text.LL_DMA_SetPeriphAddress) refers to py32f0xx_ll_dma.o(.text.LL_DMA_SetPeriphAddress) for [Anonymous Symbol]
    py32f0xx_ll_dma.o(.text.LL_DMA_SetDataLength) refers to py32f0xx_ll_dma.o(.rodata.CHANNEL_OFFSET_TAB) for [Anonymous Symbol]
    py32f0xx_ll_dma.o(.ARM.exidx.text.LL_DMA_SetDataLength) refers to py32f0xx_ll_dma.o(.text.LL_DMA_SetDataLength) for [Anonymous Symbol]
    py32f0xx_ll_dma.o(.text.LL_DMA_StructInit) refers to memseta.o(.text) for __aeabi_memclr4
    py32f0xx_ll_dma.o(.ARM.exidx.text.LL_DMA_StructInit) refers to py32f0xx_ll_dma.o(.text.LL_DMA_StructInit) for [Anonymous Symbol]
    py32f0xx_ll_exti.o(.ARM.exidx.text.LL_EXTI_DeInit) refers to py32f0xx_ll_exti.o(.text.LL_EXTI_DeInit) for [Anonymous Symbol]
    py32f0xx_ll_exti.o(.text.LL_EXTI_Init) refers to py32f0xx_ll_exti.o(.text.LL_EXTI_DisableEvent) for LL_EXTI_DisableEvent
    py32f0xx_ll_exti.o(.text.LL_EXTI_Init) refers to py32f0xx_ll_exti.o(.text.LL_EXTI_EnableIT) for LL_EXTI_EnableIT
    py32f0xx_ll_exti.o(.text.LL_EXTI_Init) refers to py32f0xx_ll_exti.o(.text.LL_EXTI_DisableIT) for LL_EXTI_DisableIT
    py32f0xx_ll_exti.o(.text.LL_EXTI_Init) refers to py32f0xx_ll_exti.o(.text.LL_EXTI_EnableEvent) for LL_EXTI_EnableEvent
    py32f0xx_ll_exti.o(.text.LL_EXTI_Init) refers to py32f0xx_ll_exti.o(.text.LL_EXTI_DisableFallingTrig) for LL_EXTI_DisableFallingTrig
    py32f0xx_ll_exti.o(.text.LL_EXTI_Init) refers to py32f0xx_ll_exti.o(.text.LL_EXTI_EnableRisingTrig) for LL_EXTI_EnableRisingTrig
    py32f0xx_ll_exti.o(.text.LL_EXTI_Init) refers to py32f0xx_ll_exti.o(.text.LL_EXTI_DisableRisingTrig) for LL_EXTI_DisableRisingTrig
    py32f0xx_ll_exti.o(.text.LL_EXTI_Init) refers to py32f0xx_ll_exti.o(.text.LL_EXTI_EnableFallingTrig) for LL_EXTI_EnableFallingTrig
    py32f0xx_ll_exti.o(.ARM.exidx.text.LL_EXTI_Init) refers to py32f0xx_ll_exti.o(.text.LL_EXTI_Init) for [Anonymous Symbol]
    py32f0xx_ll_exti.o(.ARM.exidx.text.LL_EXTI_DisableEvent) refers to py32f0xx_ll_exti.o(.text.LL_EXTI_DisableEvent) for [Anonymous Symbol]
    py32f0xx_ll_exti.o(.ARM.exidx.text.LL_EXTI_EnableIT) refers to py32f0xx_ll_exti.o(.text.LL_EXTI_EnableIT) for [Anonymous Symbol]
    py32f0xx_ll_exti.o(.ARM.exidx.text.LL_EXTI_DisableIT) refers to py32f0xx_ll_exti.o(.text.LL_EXTI_DisableIT) for [Anonymous Symbol]
    py32f0xx_ll_exti.o(.ARM.exidx.text.LL_EXTI_EnableEvent) refers to py32f0xx_ll_exti.o(.text.LL_EXTI_EnableEvent) for [Anonymous Symbol]
    py32f0xx_ll_exti.o(.ARM.exidx.text.LL_EXTI_DisableFallingTrig) refers to py32f0xx_ll_exti.o(.text.LL_EXTI_DisableFallingTrig) for [Anonymous Symbol]
    py32f0xx_ll_exti.o(.ARM.exidx.text.LL_EXTI_EnableRisingTrig) refers to py32f0xx_ll_exti.o(.text.LL_EXTI_EnableRisingTrig) for [Anonymous Symbol]
    py32f0xx_ll_exti.o(.ARM.exidx.text.LL_EXTI_DisableRisingTrig) refers to py32f0xx_ll_exti.o(.text.LL_EXTI_DisableRisingTrig) for [Anonymous Symbol]
    py32f0xx_ll_exti.o(.ARM.exidx.text.LL_EXTI_EnableFallingTrig) refers to py32f0xx_ll_exti.o(.text.LL_EXTI_EnableFallingTrig) for [Anonymous Symbol]
    py32f0xx_ll_exti.o(.ARM.exidx.text.LL_EXTI_StructInit) refers to py32f0xx_ll_exti.o(.text.LL_EXTI_StructInit) for [Anonymous Symbol]
    py32f0xx_ll_gpio.o(.text.LL_GPIO_DeInit) refers to py32f0xx_ll_gpio.o(.text.LL_IOP_GRP1_ForceReset) for LL_IOP_GRP1_ForceReset
    py32f0xx_ll_gpio.o(.text.LL_GPIO_DeInit) refers to py32f0xx_ll_gpio.o(.text.LL_IOP_GRP1_ReleaseReset) for LL_IOP_GRP1_ReleaseReset
    py32f0xx_ll_gpio.o(.ARM.exidx.text.LL_GPIO_DeInit) refers to py32f0xx_ll_gpio.o(.text.LL_GPIO_DeInit) for [Anonymous Symbol]
    py32f0xx_ll_gpio.o(.ARM.exidx.text.LL_IOP_GRP1_ForceReset) refers to py32f0xx_ll_gpio.o(.text.LL_IOP_GRP1_ForceReset) for [Anonymous Symbol]
    py32f0xx_ll_gpio.o(.ARM.exidx.text.LL_IOP_GRP1_ReleaseReset) refers to py32f0xx_ll_gpio.o(.text.LL_IOP_GRP1_ReleaseReset) for [Anonymous Symbol]
    py32f0xx_ll_gpio.o(.text.LL_GPIO_Init) refers to py32f0xx_ll_gpio.o(.text.LL_GPIO_SetAFPin_8_15) for LL_GPIO_SetAFPin_8_15
    py32f0xx_ll_gpio.o(.text.LL_GPIO_Init) refers to py32f0xx_ll_gpio.o(.text.LL_GPIO_SetPinMode) for LL_GPIO_SetPinMode
    py32f0xx_ll_gpio.o(.text.LL_GPIO_Init) refers to py32f0xx_ll_gpio.o(.text.LL_GPIO_SetPinSpeed) for LL_GPIO_SetPinSpeed
    py32f0xx_ll_gpio.o(.text.LL_GPIO_Init) refers to py32f0xx_ll_gpio.o(.text.LL_GPIO_SetPinPull) for LL_GPIO_SetPinPull
    py32f0xx_ll_gpio.o(.text.LL_GPIO_Init) refers to py32f0xx_ll_gpio.o(.text.LL_GPIO_SetAFPin_0_7) for LL_GPIO_SetAFPin_0_7
    py32f0xx_ll_gpio.o(.text.LL_GPIO_Init) refers to py32f0xx_ll_gpio.o(.text.LL_GPIO_SetPinOutputType) for LL_GPIO_SetPinOutputType
    py32f0xx_ll_gpio.o(.ARM.exidx.text.LL_GPIO_Init) refers to py32f0xx_ll_gpio.o(.text.LL_GPIO_Init) for [Anonymous Symbol]
    py32f0xx_ll_gpio.o(.ARM.exidx.text.LL_GPIO_SetPinMode) refers to py32f0xx_ll_gpio.o(.text.LL_GPIO_SetPinMode) for [Anonymous Symbol]
    py32f0xx_ll_gpio.o(.ARM.exidx.text.LL_GPIO_SetPinSpeed) refers to py32f0xx_ll_gpio.o(.text.LL_GPIO_SetPinSpeed) for [Anonymous Symbol]
    py32f0xx_ll_gpio.o(.ARM.exidx.text.LL_GPIO_SetPinPull) refers to py32f0xx_ll_gpio.o(.text.LL_GPIO_SetPinPull) for [Anonymous Symbol]
    py32f0xx_ll_gpio.o(.ARM.exidx.text.LL_GPIO_SetAFPin_0_7) refers to py32f0xx_ll_gpio.o(.text.LL_GPIO_SetAFPin_0_7) for [Anonymous Symbol]
    py32f0xx_ll_gpio.o(.ARM.exidx.text.LL_GPIO_SetAFPin_8_15) refers to py32f0xx_ll_gpio.o(.text.LL_GPIO_SetAFPin_8_15) for [Anonymous Symbol]
    py32f0xx_ll_gpio.o(.ARM.exidx.text.LL_GPIO_SetPinOutputType) refers to py32f0xx_ll_gpio.o(.text.LL_GPIO_SetPinOutputType) for [Anonymous Symbol]
    py32f0xx_ll_gpio.o(.ARM.exidx.text.LL_GPIO_StructInit) refers to py32f0xx_ll_gpio.o(.text.LL_GPIO_StructInit) for [Anonymous Symbol]
    py32f0xx_ll_i2c.o(.text.LL_I2C_DeInit) refers to py32f0xx_ll_i2c.o(.text.LL_APB1_GRP1_ForceReset) for LL_APB1_GRP1_ForceReset
    py32f0xx_ll_i2c.o(.text.LL_I2C_DeInit) refers to py32f0xx_ll_i2c.o(.text.LL_APB1_GRP1_ReleaseReset) for LL_APB1_GRP1_ReleaseReset
    py32f0xx_ll_i2c.o(.ARM.exidx.text.LL_I2C_DeInit) refers to py32f0xx_ll_i2c.o(.text.LL_I2C_DeInit) for [Anonymous Symbol]
    py32f0xx_ll_i2c.o(.ARM.exidx.text.LL_APB1_GRP1_ForceReset) refers to py32f0xx_ll_i2c.o(.text.LL_APB1_GRP1_ForceReset) for [Anonymous Symbol]
    py32f0xx_ll_i2c.o(.ARM.exidx.text.LL_APB1_GRP1_ReleaseReset) refers to py32f0xx_ll_i2c.o(.text.LL_APB1_GRP1_ReleaseReset) for [Anonymous Symbol]
    py32f0xx_ll_i2c.o(.text.LL_I2C_Init) refers to py32f0xx_ll_i2c.o(.text.LL_I2C_Disable) for LL_I2C_Disable
    py32f0xx_ll_i2c.o(.text.LL_I2C_Init) refers to py32f0xx_ll_rcc.o(.text.LL_RCC_GetSystemClocksFreq) for LL_RCC_GetSystemClocksFreq
    py32f0xx_ll_i2c.o(.text.LL_I2C_Init) refers to py32f0xx_ll_i2c.o(.text.LL_I2C_ConfigSpeed) for LL_I2C_ConfigSpeed
    py32f0xx_ll_i2c.o(.text.LL_I2C_Init) refers to py32f0xx_ll_i2c.o(.text.LL_I2C_SetOwnAddress1) for LL_I2C_SetOwnAddress1
    py32f0xx_ll_i2c.o(.text.LL_I2C_Init) refers to py32f0xx_ll_i2c.o(.text.LL_I2C_Enable) for LL_I2C_Enable
    py32f0xx_ll_i2c.o(.text.LL_I2C_Init) refers to py32f0xx_ll_i2c.o(.text.LL_I2C_AcknowledgeNextData) for LL_I2C_AcknowledgeNextData
    py32f0xx_ll_i2c.o(.ARM.exidx.text.LL_I2C_Init) refers to py32f0xx_ll_i2c.o(.text.LL_I2C_Init) for [Anonymous Symbol]
    py32f0xx_ll_i2c.o(.ARM.exidx.text.LL_I2C_Disable) refers to py32f0xx_ll_i2c.o(.text.LL_I2C_Disable) for [Anonymous Symbol]
    py32f0xx_ll_i2c.o(.text.LL_I2C_ConfigSpeed) refers to uidiv_div0.o(.text) for __aeabi_uidiv
    py32f0xx_ll_i2c.o(.ARM.exidx.text.LL_I2C_ConfigSpeed) refers to py32f0xx_ll_i2c.o(.text.LL_I2C_ConfigSpeed) for [Anonymous Symbol]
    py32f0xx_ll_i2c.o(.ARM.exidx.text.LL_I2C_SetOwnAddress1) refers to py32f0xx_ll_i2c.o(.text.LL_I2C_SetOwnAddress1) for [Anonymous Symbol]
    py32f0xx_ll_i2c.o(.ARM.exidx.text.LL_I2C_Enable) refers to py32f0xx_ll_i2c.o(.text.LL_I2C_Enable) for [Anonymous Symbol]
    py32f0xx_ll_i2c.o(.ARM.exidx.text.LL_I2C_AcknowledgeNextData) refers to py32f0xx_ll_i2c.o(.text.LL_I2C_AcknowledgeNextData) for [Anonymous Symbol]
    py32f0xx_ll_i2c.o(.ARM.exidx.text.LL_I2C_StructInit) refers to py32f0xx_ll_i2c.o(.text.LL_I2C_StructInit) for [Anonymous Symbol]
    py32f0xx_ll_lptim.o(.text.LL_LPTIM_DeInit) refers to py32f0xx_ll_lptim.o(.text.LL_APB1_GRP1_ForceReset) for LL_APB1_GRP1_ForceReset
    py32f0xx_ll_lptim.o(.text.LL_LPTIM_DeInit) refers to py32f0xx_ll_lptim.o(.text.LL_APB1_GRP1_ReleaseReset) for LL_APB1_GRP1_ReleaseReset
    py32f0xx_ll_lptim.o(.ARM.exidx.text.LL_LPTIM_DeInit) refers to py32f0xx_ll_lptim.o(.text.LL_LPTIM_DeInit) for [Anonymous Symbol]
    py32f0xx_ll_lptim.o(.ARM.exidx.text.LL_APB1_GRP1_ForceReset) refers to py32f0xx_ll_lptim.o(.text.LL_APB1_GRP1_ForceReset) for [Anonymous Symbol]
    py32f0xx_ll_lptim.o(.ARM.exidx.text.LL_APB1_GRP1_ReleaseReset) refers to py32f0xx_ll_lptim.o(.text.LL_APB1_GRP1_ReleaseReset) for [Anonymous Symbol]
    py32f0xx_ll_lptim.o(.ARM.exidx.text.LL_LPTIM_StructInit) refers to py32f0xx_ll_lptim.o(.text.LL_LPTIM_StructInit) for [Anonymous Symbol]
    py32f0xx_ll_lptim.o(.text.LL_LPTIM_Init) refers to py32f0xx_ll_lptim.o(.text.LL_LPTIM_IsEnabled) for LL_LPTIM_IsEnabled
    py32f0xx_ll_lptim.o(.ARM.exidx.text.LL_LPTIM_Init) refers to py32f0xx_ll_lptim.o(.text.LL_LPTIM_Init) for [Anonymous Symbol]
    py32f0xx_ll_lptim.o(.ARM.exidx.text.LL_LPTIM_IsEnabled) refers to py32f0xx_ll_lptim.o(.text.LL_LPTIM_IsEnabled) for [Anonymous Symbol]
    py32f0xx_ll_pwr.o(.text.LL_PWR_DeInit) refers to py32f0xx_ll_pwr.o(.text.LL_APB1_GRP1_ForceReset) for LL_APB1_GRP1_ForceReset
    py32f0xx_ll_pwr.o(.text.LL_PWR_DeInit) refers to py32f0xx_ll_pwr.o(.text.LL_APB1_GRP1_ReleaseReset) for LL_APB1_GRP1_ReleaseReset
    py32f0xx_ll_pwr.o(.ARM.exidx.text.LL_PWR_DeInit) refers to py32f0xx_ll_pwr.o(.text.LL_PWR_DeInit) for [Anonymous Symbol]
    py32f0xx_ll_pwr.o(.ARM.exidx.text.LL_APB1_GRP1_ForceReset) refers to py32f0xx_ll_pwr.o(.text.LL_APB1_GRP1_ForceReset) for [Anonymous Symbol]
    py32f0xx_ll_pwr.o(.ARM.exidx.text.LL_APB1_GRP1_ReleaseReset) refers to py32f0xx_ll_pwr.o(.text.LL_APB1_GRP1_ReleaseReset) for [Anonymous Symbol]
    py32f0xx_ll_rcc.o(.text.LL_RCC_DeInit) refers to py32f0xx_ll_rcc.o(.text.LL_RCC_HSI_Enable) for LL_RCC_HSI_Enable
    py32f0xx_ll_rcc.o(.text.LL_RCC_DeInit) refers to py32f0xx_ll_rcc.o(.text.LL_RCC_HSI_IsReady) for LL_RCC_HSI_IsReady
    py32f0xx_ll_rcc.o(.text.LL_RCC_DeInit) refers to py32f0xx_ll_rcc.o(.text.LL_RCC_HSI_SetCalibFreq) for LL_RCC_HSI_SetCalibFreq
    py32f0xx_ll_rcc.o(.text.LL_RCC_DeInit) refers to py32f0xx_ll_rcc.o(.text.LL_RCC_GetSysClkSource) for LL_RCC_GetSysClkSource
    py32f0xx_ll_rcc.o(.text.LL_RCC_DeInit) refers to py32f0xx_ll_rcc.o(.text.LL_RCC_HSE_IsReady) for LL_RCC_HSE_IsReady
    py32f0xx_ll_rcc.o(.text.LL_RCC_DeInit) refers to py32f0xx_ll_rcc.o(.text.LL_RCC_PLL_IsReady) for LL_RCC_PLL_IsReady
    py32f0xx_ll_rcc.o(.ARM.exidx.text.LL_RCC_DeInit) refers to py32f0xx_ll_rcc.o(.text.LL_RCC_DeInit) for [Anonymous Symbol]
    py32f0xx_ll_rcc.o(.ARM.exidx.text.LL_RCC_HSI_Enable) refers to py32f0xx_ll_rcc.o(.text.LL_RCC_HSI_Enable) for [Anonymous Symbol]
    py32f0xx_ll_rcc.o(.ARM.exidx.text.LL_RCC_HSI_IsReady) refers to py32f0xx_ll_rcc.o(.text.LL_RCC_HSI_IsReady) for [Anonymous Symbol]
    py32f0xx_ll_rcc.o(.ARM.exidx.text.LL_RCC_HSI_SetCalibFreq) refers to py32f0xx_ll_rcc.o(.text.LL_RCC_HSI_SetCalibFreq) for [Anonymous Symbol]
    py32f0xx_ll_rcc.o(.ARM.exidx.text.LL_RCC_GetSysClkSource) refers to py32f0xx_ll_rcc.o(.text.LL_RCC_GetSysClkSource) for [Anonymous Symbol]
    py32f0xx_ll_rcc.o(.ARM.exidx.text.LL_RCC_HSE_IsReady) refers to py32f0xx_ll_rcc.o(.text.LL_RCC_HSE_IsReady) for [Anonymous Symbol]
    py32f0xx_ll_rcc.o(.ARM.exidx.text.LL_RCC_PLL_IsReady) refers to py32f0xx_ll_rcc.o(.text.LL_RCC_PLL_IsReady) for [Anonymous Symbol]
    py32f0xx_ll_rcc.o(.text.LL_RCC_GetSystemClocksFreq) refers to py32f0xx_ll_rcc.o(.text.RCC_GetSystemClockFreq) for RCC_GetSystemClockFreq
    py32f0xx_ll_rcc.o(.text.LL_RCC_GetSystemClocksFreq) refers to py32f0xx_ll_rcc.o(.text.RCC_GetHCLKClockFreq) for RCC_GetHCLKClockFreq
    py32f0xx_ll_rcc.o(.text.LL_RCC_GetSystemClocksFreq) refers to py32f0xx_ll_rcc.o(.text.RCC_GetPCLK1ClockFreq) for RCC_GetPCLK1ClockFreq
    py32f0xx_ll_rcc.o(.ARM.exidx.text.LL_RCC_GetSystemClocksFreq) refers to py32f0xx_ll_rcc.o(.text.LL_RCC_GetSystemClocksFreq) for [Anonymous Symbol]
    py32f0xx_ll_rcc.o(.text.RCC_GetSystemClockFreq) refers to py32f0xx_ll_rcc.o(.text.LL_RCC_GetSysClkSource) for LL_RCC_GetSysClkSource
    py32f0xx_ll_rcc.o(.text.RCC_GetSystemClockFreq) refers to py32f0xx_ll_rcc.o(.text.LL_RCC_GetHSIDiv) for LL_RCC_GetHSIDiv
    py32f0xx_ll_rcc.o(.text.RCC_GetSystemClockFreq) refers to py32f0xx_ll_rcc.o(.text.RCC_PLL_GetFreqDomain_SYS) for RCC_PLL_GetFreqDomain_SYS
    py32f0xx_ll_rcc.o(.text.RCC_GetSystemClockFreq) refers to system_py32f0xx.o(.rodata.HSIFreqTable) for HSIFreqTable
    py32f0xx_ll_rcc.o(.ARM.exidx.text.RCC_GetSystemClockFreq) refers to py32f0xx_ll_rcc.o(.text.RCC_GetSystemClockFreq) for [Anonymous Symbol]
    py32f0xx_ll_rcc.o(.text.RCC_GetHCLKClockFreq) refers to py32f0xx_ll_rcc.o(.text.LL_RCC_GetAHBPrescaler) for LL_RCC_GetAHBPrescaler
    py32f0xx_ll_rcc.o(.text.RCC_GetHCLKClockFreq) refers to system_py32f0xx.o(.rodata.AHBPrescTable) for AHBPrescTable
    py32f0xx_ll_rcc.o(.ARM.exidx.text.RCC_GetHCLKClockFreq) refers to py32f0xx_ll_rcc.o(.text.RCC_GetHCLKClockFreq) for [Anonymous Symbol]
    py32f0xx_ll_rcc.o(.text.RCC_GetPCLK1ClockFreq) refers to py32f0xx_ll_rcc.o(.text.LL_RCC_GetAPB1Prescaler) for LL_RCC_GetAPB1Prescaler
    py32f0xx_ll_rcc.o(.text.RCC_GetPCLK1ClockFreq) refers to system_py32f0xx.o(.rodata.APBPrescTable) for APBPrescTable
    py32f0xx_ll_rcc.o(.ARM.exidx.text.RCC_GetPCLK1ClockFreq) refers to py32f0xx_ll_rcc.o(.text.RCC_GetPCLK1ClockFreq) for [Anonymous Symbol]
    py32f0xx_ll_rcc.o(.text.LL_RCC_GetMCOClockFreq) refers to py32f0xx_ll_rcc.o(.text.LL_RCC_GetMCOClockSource) for LL_RCC_GetMCOClockSource
    py32f0xx_ll_rcc.o(.text.LL_RCC_GetMCOClockFreq) refers to py32f0xx_ll_rcc.o(.text.LL_RCC_HSI_GetFreq) for LL_RCC_HSI_GetFreq
    py32f0xx_ll_rcc.o(.text.LL_RCC_GetMCOClockFreq) refers to py32f0xx_ll_rcc.o(.text.LL_RCC_HSE_IsReady) for LL_RCC_HSE_IsReady
    py32f0xx_ll_rcc.o(.text.LL_RCC_GetMCOClockFreq) refers to py32f0xx_ll_rcc.o(.text.RCC_PLL_GetFreqDomain_SYS) for RCC_PLL_GetFreqDomain_SYS
    py32f0xx_ll_rcc.o(.text.LL_RCC_GetMCOClockFreq) refers to py32f0xx_ll_rcc.o(.text.LL_RCC_LSI_IsReady) for LL_RCC_LSI_IsReady
    py32f0xx_ll_rcc.o(.text.LL_RCC_GetMCOClockFreq) refers to py32f0xx_ll_rcc.o(.text.LL_RCC_LSE_IsReady) for LL_RCC_LSE_IsReady
    py32f0xx_ll_rcc.o(.text.LL_RCC_GetMCOClockFreq) refers to py32f0xx_ll_rcc.o(.text.LL_RCC_GetMCODiv) for LL_RCC_GetMCODiv
    py32f0xx_ll_rcc.o(.text.LL_RCC_GetMCOClockFreq) refers to system_py32f0xx.o(.data.SystemCoreClock) for SystemCoreClock
    py32f0xx_ll_rcc.o(.ARM.exidx.text.LL_RCC_GetMCOClockFreq) refers to py32f0xx_ll_rcc.o(.text.LL_RCC_GetMCOClockFreq) for [Anonymous Symbol]
    py32f0xx_ll_rcc.o(.ARM.exidx.text.LL_RCC_GetMCOClockSource) refers to py32f0xx_ll_rcc.o(.text.LL_RCC_GetMCOClockSource) for [Anonymous Symbol]
    py32f0xx_ll_rcc.o(.text.LL_RCC_HSI_GetFreq) refers to system_py32f0xx.o(.rodata.HSIFreqTable) for HSIFreqTable
    py32f0xx_ll_rcc.o(.ARM.exidx.text.LL_RCC_HSI_GetFreq) refers to py32f0xx_ll_rcc.o(.text.LL_RCC_HSI_GetFreq) for [Anonymous Symbol]
    py32f0xx_ll_rcc.o(.text.RCC_PLL_GetFreqDomain_SYS) refers to py32f0xx_ll_rcc.o(.text.LL_RCC_PLL_GetMainSource) for LL_RCC_PLL_GetMainSource
    py32f0xx_ll_rcc.o(.text.RCC_PLL_GetFreqDomain_SYS) refers to py32f0xx_ll_rcc.o(.text.LL_RCC_HSI_GetFreq) for LL_RCC_HSI_GetFreq
    py32f0xx_ll_rcc.o(.ARM.exidx.text.RCC_PLL_GetFreqDomain_SYS) refers to py32f0xx_ll_rcc.o(.text.RCC_PLL_GetFreqDomain_SYS) for [Anonymous Symbol]
    py32f0xx_ll_rcc.o(.ARM.exidx.text.LL_RCC_LSI_IsReady) refers to py32f0xx_ll_rcc.o(.text.LL_RCC_LSI_IsReady) for [Anonymous Symbol]
    py32f0xx_ll_rcc.o(.ARM.exidx.text.LL_RCC_LSE_IsReady) refers to py32f0xx_ll_rcc.o(.text.LL_RCC_LSE_IsReady) for [Anonymous Symbol]
    py32f0xx_ll_rcc.o(.ARM.exidx.text.LL_RCC_GetMCODiv) refers to py32f0xx_ll_rcc.o(.text.LL_RCC_GetMCODiv) for [Anonymous Symbol]
    py32f0xx_ll_rcc.o(.text.LL_RCC_GetLSCClockFreq) refers to py32f0xx_ll_rcc.o(.text.LL_RCC_LSCO_GetSource) for LL_RCC_LSCO_GetSource
    py32f0xx_ll_rcc.o(.text.LL_RCC_GetLSCClockFreq) refers to py32f0xx_ll_rcc.o(.text.LL_RCC_LSE_IsReady) for LL_RCC_LSE_IsReady
    py32f0xx_ll_rcc.o(.text.LL_RCC_GetLSCClockFreq) refers to py32f0xx_ll_rcc.o(.text.LL_RCC_LSI_IsReady) for LL_RCC_LSI_IsReady
    py32f0xx_ll_rcc.o(.ARM.exidx.text.LL_RCC_GetLSCClockFreq) refers to py32f0xx_ll_rcc.o(.text.LL_RCC_GetLSCClockFreq) for [Anonymous Symbol]
    py32f0xx_ll_rcc.o(.ARM.exidx.text.LL_RCC_LSCO_GetSource) refers to py32f0xx_ll_rcc.o(.text.LL_RCC_LSCO_GetSource) for [Anonymous Symbol]
    py32f0xx_ll_rcc.o(.text.LL_RCC_GetPVDClockFreq) refers to py32f0xx_ll_rcc.o(.text.LL_RCC_GetPVDClockSource) for LL_RCC_GetPVDClockSource
    py32f0xx_ll_rcc.o(.text.LL_RCC_GetPVDClockFreq) refers to py32f0xx_ll_rcc.o(.text.LL_RCC_GetLSCClockFreq) for LL_RCC_GetLSCClockFreq
    py32f0xx_ll_rcc.o(.text.LL_RCC_GetPVDClockFreq) refers to py32f0xx_ll_rcc.o(.text.RCC_GetSystemClockFreq) for RCC_GetSystemClockFreq
    py32f0xx_ll_rcc.o(.text.LL_RCC_GetPVDClockFreq) refers to py32f0xx_ll_rcc.o(.text.RCC_GetHCLKClockFreq) for RCC_GetHCLKClockFreq
    py32f0xx_ll_rcc.o(.text.LL_RCC_GetPVDClockFreq) refers to py32f0xx_ll_rcc.o(.text.RCC_GetPCLK1ClockFreq) for RCC_GetPCLK1ClockFreq
    py32f0xx_ll_rcc.o(.ARM.exidx.text.LL_RCC_GetPVDClockFreq) refers to py32f0xx_ll_rcc.o(.text.LL_RCC_GetPVDClockFreq) for [Anonymous Symbol]
    py32f0xx_ll_rcc.o(.ARM.exidx.text.LL_RCC_GetPVDClockSource) refers to py32f0xx_ll_rcc.o(.text.LL_RCC_GetPVDClockSource) for [Anonymous Symbol]
    py32f0xx_ll_rcc.o(.text.LL_RCC_GetCOMPClockFreq) refers to py32f0xx_ll_rcc.o(.text.LL_RCC_GetCOMPClockSource) for LL_RCC_GetCOMPClockSource
    py32f0xx_ll_rcc.o(.text.LL_RCC_GetCOMPClockFreq) refers to py32f0xx_ll_rcc.o(.text.LL_RCC_GetLSCClockFreq) for LL_RCC_GetLSCClockFreq
    py32f0xx_ll_rcc.o(.text.LL_RCC_GetCOMPClockFreq) refers to py32f0xx_ll_rcc.o(.text.RCC_GetSystemClockFreq) for RCC_GetSystemClockFreq
    py32f0xx_ll_rcc.o(.text.LL_RCC_GetCOMPClockFreq) refers to py32f0xx_ll_rcc.o(.text.RCC_GetHCLKClockFreq) for RCC_GetHCLKClockFreq
    py32f0xx_ll_rcc.o(.text.LL_RCC_GetCOMPClockFreq) refers to py32f0xx_ll_rcc.o(.text.RCC_GetPCLK1ClockFreq) for RCC_GetPCLK1ClockFreq
    py32f0xx_ll_rcc.o(.ARM.exidx.text.LL_RCC_GetCOMPClockFreq) refers to py32f0xx_ll_rcc.o(.text.LL_RCC_GetCOMPClockFreq) for [Anonymous Symbol]
    py32f0xx_ll_rcc.o(.ARM.exidx.text.LL_RCC_GetCOMPClockSource) refers to py32f0xx_ll_rcc.o(.text.LL_RCC_GetCOMPClockSource) for [Anonymous Symbol]
    py32f0xx_ll_rcc.o(.text.LL_RCC_GetLPTIMClockFreq) refers to py32f0xx_ll_rcc.o(.text.LL_RCC_GetLPTIMClockSource) for LL_RCC_GetLPTIMClockSource
    py32f0xx_ll_rcc.o(.text.LL_RCC_GetLPTIMClockFreq) refers to py32f0xx_ll_rcc.o(.text.LL_RCC_LSI_IsReady) for LL_RCC_LSI_IsReady
    py32f0xx_ll_rcc.o(.text.LL_RCC_GetLPTIMClockFreq) refers to py32f0xx_ll_rcc.o(.text.LL_RCC_LSE_IsReady) for LL_RCC_LSE_IsReady
    py32f0xx_ll_rcc.o(.text.LL_RCC_GetLPTIMClockFreq) refers to py32f0xx_ll_rcc.o(.text.RCC_GetSystemClockFreq) for RCC_GetSystemClockFreq
    py32f0xx_ll_rcc.o(.text.LL_RCC_GetLPTIMClockFreq) refers to py32f0xx_ll_rcc.o(.text.RCC_GetHCLKClockFreq) for RCC_GetHCLKClockFreq
    py32f0xx_ll_rcc.o(.text.LL_RCC_GetLPTIMClockFreq) refers to py32f0xx_ll_rcc.o(.text.RCC_GetPCLK1ClockFreq) for RCC_GetPCLK1ClockFreq
    py32f0xx_ll_rcc.o(.ARM.exidx.text.LL_RCC_GetLPTIMClockFreq) refers to py32f0xx_ll_rcc.o(.text.LL_RCC_GetLPTIMClockFreq) for [Anonymous Symbol]
    py32f0xx_ll_rcc.o(.ARM.exidx.text.LL_RCC_GetLPTIMClockSource) refers to py32f0xx_ll_rcc.o(.text.LL_RCC_GetLPTIMClockSource) for [Anonymous Symbol]
    py32f0xx_ll_rcc.o(.text.LL_RCC_GetRTCClockFreq) refers to py32f0xx_ll_rcc.o(.text.LL_RCC_GetRTCClockSource) for LL_RCC_GetRTCClockSource
    py32f0xx_ll_rcc.o(.text.LL_RCC_GetRTCClockFreq) refers to py32f0xx_ll_rcc.o(.text.LL_RCC_LSE_IsReady) for LL_RCC_LSE_IsReady
    py32f0xx_ll_rcc.o(.text.LL_RCC_GetRTCClockFreq) refers to py32f0xx_ll_rcc.o(.text.LL_RCC_LSI_IsReady) for LL_RCC_LSI_IsReady
    py32f0xx_ll_rcc.o(.text.LL_RCC_GetRTCClockFreq) refers to py32f0xx_ll_rcc.o(.text.LL_RCC_HSE_IsReady) for LL_RCC_HSE_IsReady
    py32f0xx_ll_rcc.o(.ARM.exidx.text.LL_RCC_GetRTCClockFreq) refers to py32f0xx_ll_rcc.o(.text.LL_RCC_GetRTCClockFreq) for [Anonymous Symbol]
    py32f0xx_ll_rcc.o(.ARM.exidx.text.LL_RCC_GetRTCClockSource) refers to py32f0xx_ll_rcc.o(.text.LL_RCC_GetRTCClockSource) for [Anonymous Symbol]
    py32f0xx_ll_rcc.o(.ARM.exidx.text.LL_RCC_GetHSIDiv) refers to py32f0xx_ll_rcc.o(.text.LL_RCC_GetHSIDiv) for [Anonymous Symbol]
    py32f0xx_ll_rcc.o(.ARM.exidx.text.LL_RCC_GetAHBPrescaler) refers to py32f0xx_ll_rcc.o(.text.LL_RCC_GetAHBPrescaler) for [Anonymous Symbol]
    py32f0xx_ll_rcc.o(.ARM.exidx.text.LL_RCC_GetAPB1Prescaler) refers to py32f0xx_ll_rcc.o(.text.LL_RCC_GetAPB1Prescaler) for [Anonymous Symbol]
    py32f0xx_ll_rcc.o(.ARM.exidx.text.LL_RCC_PLL_GetMainSource) refers to py32f0xx_ll_rcc.o(.text.LL_RCC_PLL_GetMainSource) for [Anonymous Symbol]
    py32f0xx_ll_tim.o(.text.LL_TIM_DeInit) refers to py32f0xx_ll_tim.o(.text.LL_APB1_GRP1_ForceReset) for LL_APB1_GRP1_ForceReset
    py32f0xx_ll_tim.o(.text.LL_TIM_DeInit) refers to py32f0xx_ll_tim.o(.text.LL_APB1_GRP1_ReleaseReset) for LL_APB1_GRP1_ReleaseReset
    py32f0xx_ll_tim.o(.text.LL_TIM_DeInit) refers to py32f0xx_ll_tim.o(.text.LL_APB1_GRP2_ForceReset) for LL_APB1_GRP2_ForceReset
    py32f0xx_ll_tim.o(.text.LL_TIM_DeInit) refers to py32f0xx_ll_tim.o(.text.LL_APB1_GRP2_ReleaseReset) for LL_APB1_GRP2_ReleaseReset
    py32f0xx_ll_tim.o(.ARM.exidx.text.LL_TIM_DeInit) refers to py32f0xx_ll_tim.o(.text.LL_TIM_DeInit) for [Anonymous Symbol]
    py32f0xx_ll_tim.o(.ARM.exidx.text.LL_APB1_GRP2_ForceReset) refers to py32f0xx_ll_tim.o(.text.LL_APB1_GRP2_ForceReset) for [Anonymous Symbol]
    py32f0xx_ll_tim.o(.ARM.exidx.text.LL_APB1_GRP2_ReleaseReset) refers to py32f0xx_ll_tim.o(.text.LL_APB1_GRP2_ReleaseReset) for [Anonymous Symbol]
    py32f0xx_ll_tim.o(.ARM.exidx.text.LL_APB1_GRP1_ForceReset) refers to py32f0xx_ll_tim.o(.text.LL_APB1_GRP1_ForceReset) for [Anonymous Symbol]
    py32f0xx_ll_tim.o(.ARM.exidx.text.LL_APB1_GRP1_ReleaseReset) refers to py32f0xx_ll_tim.o(.text.LL_APB1_GRP1_ReleaseReset) for [Anonymous Symbol]
    py32f0xx_ll_tim.o(.ARM.exidx.text.LL_TIM_StructInit) refers to py32f0xx_ll_tim.o(.text.LL_TIM_StructInit) for [Anonymous Symbol]
    py32f0xx_ll_tim.o(.text.LL_TIM_Init) refers to py32f0xx_ll_tim.o(.text.LL_TIM_SetAutoReload) for LL_TIM_SetAutoReload
    py32f0xx_ll_tim.o(.text.LL_TIM_Init) refers to py32f0xx_ll_tim.o(.text.LL_TIM_SetPrescaler) for LL_TIM_SetPrescaler
    py32f0xx_ll_tim.o(.text.LL_TIM_Init) refers to py32f0xx_ll_tim.o(.text.LL_TIM_SetRepetitionCounter) for LL_TIM_SetRepetitionCounter
    py32f0xx_ll_tim.o(.text.LL_TIM_Init) refers to py32f0xx_ll_tim.o(.text.LL_TIM_GenerateEvent_UPDATE) for LL_TIM_GenerateEvent_UPDATE
    py32f0xx_ll_tim.o(.ARM.exidx.text.LL_TIM_Init) refers to py32f0xx_ll_tim.o(.text.LL_TIM_Init) for [Anonymous Symbol]
    py32f0xx_ll_tim.o(.ARM.exidx.text.LL_TIM_SetAutoReload) refers to py32f0xx_ll_tim.o(.text.LL_TIM_SetAutoReload) for [Anonymous Symbol]
    py32f0xx_ll_tim.o(.ARM.exidx.text.LL_TIM_SetPrescaler) refers to py32f0xx_ll_tim.o(.text.LL_TIM_SetPrescaler) for [Anonymous Symbol]
    py32f0xx_ll_tim.o(.ARM.exidx.text.LL_TIM_SetRepetitionCounter) refers to py32f0xx_ll_tim.o(.text.LL_TIM_SetRepetitionCounter) for [Anonymous Symbol]
    py32f0xx_ll_tim.o(.ARM.exidx.text.LL_TIM_GenerateEvent_UPDATE) refers to py32f0xx_ll_tim.o(.text.LL_TIM_GenerateEvent_UPDATE) for [Anonymous Symbol]
    py32f0xx_ll_tim.o(.ARM.exidx.text.LL_TIM_OC_StructInit) refers to py32f0xx_ll_tim.o(.text.LL_TIM_OC_StructInit) for [Anonymous Symbol]
    py32f0xx_ll_tim.o(.text.LL_TIM_OC_Init) refers to py32f0xx_ll_tim.o(.text.OC2Config) for OC2Config
    py32f0xx_ll_tim.o(.text.LL_TIM_OC_Init) refers to py32f0xx_ll_tim.o(.text.OC4Config) for OC4Config
    py32f0xx_ll_tim.o(.text.LL_TIM_OC_Init) refers to py32f0xx_ll_tim.o(.text.OC1Config) for OC1Config
    py32f0xx_ll_tim.o(.text.LL_TIM_OC_Init) refers to py32f0xx_ll_tim.o(.text.OC3Config) for OC3Config
    py32f0xx_ll_tim.o(.ARM.exidx.text.LL_TIM_OC_Init) refers to py32f0xx_ll_tim.o(.text.LL_TIM_OC_Init) for [Anonymous Symbol]
    py32f0xx_ll_tim.o(.text.OC1Config) refers to py32f0xx_ll_tim.o(.text.LL_TIM_OC_SetCompareCH1) for LL_TIM_OC_SetCompareCH1
    py32f0xx_ll_tim.o(.ARM.exidx.text.OC1Config) refers to py32f0xx_ll_tim.o(.text.OC1Config) for [Anonymous Symbol]
    py32f0xx_ll_tim.o(.text.OC2Config) refers to py32f0xx_ll_tim.o(.text.LL_TIM_OC_SetCompareCH2) for LL_TIM_OC_SetCompareCH2
    py32f0xx_ll_tim.o(.ARM.exidx.text.OC2Config) refers to py32f0xx_ll_tim.o(.text.OC2Config) for [Anonymous Symbol]
    py32f0xx_ll_tim.o(.text.OC3Config) refers to py32f0xx_ll_tim.o(.text.LL_TIM_OC_SetCompareCH3) for LL_TIM_OC_SetCompareCH3
    py32f0xx_ll_tim.o(.ARM.exidx.text.OC3Config) refers to py32f0xx_ll_tim.o(.text.OC3Config) for [Anonymous Symbol]
    py32f0xx_ll_tim.o(.text.OC4Config) refers to py32f0xx_ll_tim.o(.text.LL_TIM_OC_SetCompareCH4) for LL_TIM_OC_SetCompareCH4
    py32f0xx_ll_tim.o(.ARM.exidx.text.OC4Config) refers to py32f0xx_ll_tim.o(.text.OC4Config) for [Anonymous Symbol]
    py32f0xx_ll_tim.o(.ARM.exidx.text.LL_TIM_IC_StructInit) refers to py32f0xx_ll_tim.o(.text.LL_TIM_IC_StructInit) for [Anonymous Symbol]
    py32f0xx_ll_tim.o(.text.LL_TIM_IC_Init) refers to py32f0xx_ll_tim.o(.text.IC2Config) for IC2Config
    py32f0xx_ll_tim.o(.text.LL_TIM_IC_Init) refers to py32f0xx_ll_tim.o(.text.IC4Config) for IC4Config
    py32f0xx_ll_tim.o(.text.LL_TIM_IC_Init) refers to py32f0xx_ll_tim.o(.text.IC1Config) for IC1Config
    py32f0xx_ll_tim.o(.text.LL_TIM_IC_Init) refers to py32f0xx_ll_tim.o(.text.IC3Config) for IC3Config
    py32f0xx_ll_tim.o(.ARM.exidx.text.LL_TIM_IC_Init) refers to py32f0xx_ll_tim.o(.text.LL_TIM_IC_Init) for [Anonymous Symbol]
    py32f0xx_ll_tim.o(.ARM.exidx.text.IC1Config) refers to py32f0xx_ll_tim.o(.text.IC1Config) for [Anonymous Symbol]
    py32f0xx_ll_tim.o(.ARM.exidx.text.IC2Config) refers to py32f0xx_ll_tim.o(.text.IC2Config) for [Anonymous Symbol]
    py32f0xx_ll_tim.o(.ARM.exidx.text.IC3Config) refers to py32f0xx_ll_tim.o(.text.IC3Config) for [Anonymous Symbol]
    py32f0xx_ll_tim.o(.ARM.exidx.text.IC4Config) refers to py32f0xx_ll_tim.o(.text.IC4Config) for [Anonymous Symbol]
    py32f0xx_ll_tim.o(.ARM.exidx.text.LL_TIM_ENCODER_StructInit) refers to py32f0xx_ll_tim.o(.text.LL_TIM_ENCODER_StructInit) for [Anonymous Symbol]
    py32f0xx_ll_tim.o(.text.LL_TIM_ENCODER_Init) refers to py32f0xx_ll_tim.o(.text.LL_TIM_SetEncoderMode) for LL_TIM_SetEncoderMode
    py32f0xx_ll_tim.o(.ARM.exidx.text.LL_TIM_ENCODER_Init) refers to py32f0xx_ll_tim.o(.text.LL_TIM_ENCODER_Init) for [Anonymous Symbol]
    py32f0xx_ll_tim.o(.ARM.exidx.text.LL_TIM_SetEncoderMode) refers to py32f0xx_ll_tim.o(.text.LL_TIM_SetEncoderMode) for [Anonymous Symbol]
    py32f0xx_ll_tim.o(.ARM.exidx.text.LL_TIM_HALLSENSOR_StructInit) refers to py32f0xx_ll_tim.o(.text.LL_TIM_HALLSENSOR_StructInit) for [Anonymous Symbol]
    py32f0xx_ll_tim.o(.text.LL_TIM_HALLSENSOR_Init) refers to py32f0xx_ll_tim.o(.text.LL_TIM_OC_SetCompareCH2) for LL_TIM_OC_SetCompareCH2
    py32f0xx_ll_tim.o(.ARM.exidx.text.LL_TIM_HALLSENSOR_Init) refers to py32f0xx_ll_tim.o(.text.LL_TIM_HALLSENSOR_Init) for [Anonymous Symbol]
    py32f0xx_ll_tim.o(.ARM.exidx.text.LL_TIM_OC_SetCompareCH2) refers to py32f0xx_ll_tim.o(.text.LL_TIM_OC_SetCompareCH2) for [Anonymous Symbol]
    py32f0xx_ll_tim.o(.ARM.exidx.text.LL_TIM_BDTR_StructInit) refers to py32f0xx_ll_tim.o(.text.LL_TIM_BDTR_StructInit) for [Anonymous Symbol]
    py32f0xx_ll_tim.o(.ARM.exidx.text.LL_TIM_BDTR_Init) refers to py32f0xx_ll_tim.o(.text.LL_TIM_BDTR_Init) for [Anonymous Symbol]
    py32f0xx_ll_tim.o(.ARM.exidx.text.LL_TIM_OC_SetCompareCH1) refers to py32f0xx_ll_tim.o(.text.LL_TIM_OC_SetCompareCH1) for [Anonymous Symbol]
    py32f0xx_ll_tim.o(.ARM.exidx.text.LL_TIM_OC_SetCompareCH3) refers to py32f0xx_ll_tim.o(.text.LL_TIM_OC_SetCompareCH3) for [Anonymous Symbol]
    py32f0xx_ll_tim.o(.ARM.exidx.text.LL_TIM_OC_SetCompareCH4) refers to py32f0xx_ll_tim.o(.text.LL_TIM_OC_SetCompareCH4) for [Anonymous Symbol]
    py32f0xx_ll_utils.o(.text.LL_Init1msTick) refers to py32f0xx_ll_utils.o(.text.LL_InitTick) for LL_InitTick
    py32f0xx_ll_utils.o(.ARM.exidx.text.LL_Init1msTick) refers to py32f0xx_ll_utils.o(.text.LL_Init1msTick) for [Anonymous Symbol]
    py32f0xx_ll_utils.o(.text.LL_InitTick) refers to uidiv_div0.o(.text) for __aeabi_uidiv
    py32f0xx_ll_utils.o(.ARM.exidx.text.LL_InitTick) refers to py32f0xx_ll_utils.o(.text.LL_InitTick) for [Anonymous Symbol]
    py32f0xx_ll_utils.o(.ARM.exidx.text.LL_mDelay) refers to py32f0xx_ll_utils.o(.text.LL_mDelay) for [Anonymous Symbol]
    py32f0xx_ll_utils.o(.text.LL_SetSystemCoreClock) refers to system_py32f0xx.o(.data.SystemCoreClock) for SystemCoreClock
    py32f0xx_ll_utils.o(.ARM.exidx.text.LL_SetSystemCoreClock) refers to py32f0xx_ll_utils.o(.text.LL_SetSystemCoreClock) for [Anonymous Symbol]
    py32f0xx_ll_utils.o(.text.LL_PLL_ConfigSystemClock_HSI) refers to py32f0xx_ll_utils.o(.text.UTILS_PLL_IsBusy) for UTILS_PLL_IsBusy
    py32f0xx_ll_utils.o(.text.LL_PLL_ConfigSystemClock_HSI) refers to py32f0xx_ll_utils.o(.text.LL_RCC_HSI_GetFreq) for LL_RCC_HSI_GetFreq
    py32f0xx_ll_utils.o(.text.LL_PLL_ConfigSystemClock_HSI) refers to py32f0xx_ll_utils.o(.text.LL_RCC_HSI_IsReady) for LL_RCC_HSI_IsReady
    py32f0xx_ll_utils.o(.text.LL_PLL_ConfigSystemClock_HSI) refers to py32f0xx_ll_utils.o(.text.LL_RCC_HSI_Enable) for LL_RCC_HSI_Enable
    py32f0xx_ll_utils.o(.text.LL_PLL_ConfigSystemClock_HSI) refers to py32f0xx_ll_utils.o(.text.LL_RCC_PLL_SetMainSource) for LL_RCC_PLL_SetMainSource
    py32f0xx_ll_utils.o(.text.LL_PLL_ConfigSystemClock_HSI) refers to py32f0xx_ll_utils.o(.text.UTILS_EnablePLLAndSwitchSystem) for UTILS_EnablePLLAndSwitchSystem
    py32f0xx_ll_utils.o(.ARM.exidx.text.LL_PLL_ConfigSystemClock_HSI) refers to py32f0xx_ll_utils.o(.text.LL_PLL_ConfigSystemClock_HSI) for [Anonymous Symbol]
    py32f0xx_ll_utils.o(.text.UTILS_PLL_IsBusy) refers to py32f0xx_ll_utils.o(.text.LL_RCC_PLL_IsReady) for LL_RCC_PLL_IsReady
    py32f0xx_ll_utils.o(.ARM.exidx.text.UTILS_PLL_IsBusy) refers to py32f0xx_ll_utils.o(.text.UTILS_PLL_IsBusy) for [Anonymous Symbol]
    py32f0xx_ll_utils.o(.text.LL_RCC_HSI_GetFreq) refers to system_py32f0xx.o(.rodata.HSIFreqTable) for HSIFreqTable
    py32f0xx_ll_utils.o(.ARM.exidx.text.LL_RCC_HSI_GetFreq) refers to py32f0xx_ll_utils.o(.text.LL_RCC_HSI_GetFreq) for [Anonymous Symbol]
    py32f0xx_ll_utils.o(.ARM.exidx.text.LL_RCC_HSI_IsReady) refers to py32f0xx_ll_utils.o(.text.LL_RCC_HSI_IsReady) for [Anonymous Symbol]
    py32f0xx_ll_utils.o(.ARM.exidx.text.LL_RCC_HSI_Enable) refers to py32f0xx_ll_utils.o(.text.LL_RCC_HSI_Enable) for [Anonymous Symbol]
    py32f0xx_ll_utils.o(.ARM.exidx.text.LL_RCC_PLL_SetMainSource) refers to py32f0xx_ll_utils.o(.text.LL_RCC_PLL_SetMainSource) for [Anonymous Symbol]
    py32f0xx_ll_utils.o(.text.UTILS_EnablePLLAndSwitchSystem) refers to py32f0xx_ll_utils.o(.text.LL_SetFlashLatency) for LL_SetFlashLatency
    py32f0xx_ll_utils.o(.text.UTILS_EnablePLLAndSwitchSystem) refers to py32f0xx_ll_utils.o(.text.LL_RCC_PLL_Enable) for LL_RCC_PLL_Enable
    py32f0xx_ll_utils.o(.text.UTILS_EnablePLLAndSwitchSystem) refers to py32f0xx_ll_utils.o(.text.LL_RCC_PLL_IsReady) for LL_RCC_PLL_IsReady
    py32f0xx_ll_utils.o(.text.UTILS_EnablePLLAndSwitchSystem) refers to py32f0xx_ll_utils.o(.text.LL_RCC_SetAHBPrescaler) for LL_RCC_SetAHBPrescaler
    py32f0xx_ll_utils.o(.text.UTILS_EnablePLLAndSwitchSystem) refers to py32f0xx_ll_utils.o(.text.LL_RCC_SetSysClkSource) for LL_RCC_SetSysClkSource
    py32f0xx_ll_utils.o(.text.UTILS_EnablePLLAndSwitchSystem) refers to py32f0xx_ll_utils.o(.text.LL_RCC_GetSysClkSource) for LL_RCC_GetSysClkSource
    py32f0xx_ll_utils.o(.text.UTILS_EnablePLLAndSwitchSystem) refers to py32f0xx_ll_utils.o(.text.LL_RCC_SetAPB1Prescaler) for LL_RCC_SetAPB1Prescaler
    py32f0xx_ll_utils.o(.text.UTILS_EnablePLLAndSwitchSystem) refers to py32f0xx_ll_utils.o(.text.LL_SetSystemCoreClock) for LL_SetSystemCoreClock
    py32f0xx_ll_utils.o(.text.UTILS_EnablePLLAndSwitchSystem) refers to system_py32f0xx.o(.rodata.AHBPrescTable) for AHBPrescTable
    py32f0xx_ll_utils.o(.text.UTILS_EnablePLLAndSwitchSystem) refers to system_py32f0xx.o(.data.SystemCoreClock) for SystemCoreClock
    py32f0xx_ll_utils.o(.ARM.exidx.text.UTILS_EnablePLLAndSwitchSystem) refers to py32f0xx_ll_utils.o(.text.UTILS_EnablePLLAndSwitchSystem) for [Anonymous Symbol]
    py32f0xx_ll_utils.o(.text.LL_PLL_ConfigSystemClock_HSE) refers to py32f0xx_ll_utils.o(.text.UTILS_PLL_IsBusy) for UTILS_PLL_IsBusy
    py32f0xx_ll_utils.o(.text.LL_PLL_ConfigSystemClock_HSE) refers to py32f0xx_ll_utils.o(.text.LL_RCC_HSE_IsReady) for LL_RCC_HSE_IsReady
    py32f0xx_ll_utils.o(.text.LL_PLL_ConfigSystemClock_HSE) refers to py32f0xx_ll_utils.o(.text.LL_RCC_HSE_SetFreqRegion) for LL_RCC_HSE_SetFreqRegion
    py32f0xx_ll_utils.o(.text.LL_PLL_ConfigSystemClock_HSE) refers to py32f0xx_ll_utils.o(.text.LL_RCC_HSE_EnableBypass) for LL_RCC_HSE_EnableBypass
    py32f0xx_ll_utils.o(.text.LL_PLL_ConfigSystemClock_HSE) refers to py32f0xx_ll_utils.o(.text.LL_RCC_HSE_DisableBypass) for LL_RCC_HSE_DisableBypass
    py32f0xx_ll_utils.o(.text.LL_PLL_ConfigSystemClock_HSE) refers to py32f0xx_ll_utils.o(.text.LL_RCC_HSE_Enable) for LL_RCC_HSE_Enable
    py32f0xx_ll_utils.o(.text.LL_PLL_ConfigSystemClock_HSE) refers to py32f0xx_ll_utils.o(.text.LL_RCC_PLL_SetMainSource) for LL_RCC_PLL_SetMainSource
    py32f0xx_ll_utils.o(.text.LL_PLL_ConfigSystemClock_HSE) refers to py32f0xx_ll_utils.o(.text.UTILS_EnablePLLAndSwitchSystem) for UTILS_EnablePLLAndSwitchSystem
    py32f0xx_ll_utils.o(.ARM.exidx.text.LL_PLL_ConfigSystemClock_HSE) refers to py32f0xx_ll_utils.o(.text.LL_PLL_ConfigSystemClock_HSE) for [Anonymous Symbol]
    py32f0xx_ll_utils.o(.ARM.exidx.text.LL_RCC_HSE_IsReady) refers to py32f0xx_ll_utils.o(.text.LL_RCC_HSE_IsReady) for [Anonymous Symbol]
    py32f0xx_ll_utils.o(.ARM.exidx.text.LL_RCC_HSE_SetFreqRegion) refers to py32f0xx_ll_utils.o(.text.LL_RCC_HSE_SetFreqRegion) for [Anonymous Symbol]
    py32f0xx_ll_utils.o(.ARM.exidx.text.LL_RCC_HSE_EnableBypass) refers to py32f0xx_ll_utils.o(.text.LL_RCC_HSE_EnableBypass) for [Anonymous Symbol]
    py32f0xx_ll_utils.o(.ARM.exidx.text.LL_RCC_HSE_DisableBypass) refers to py32f0xx_ll_utils.o(.text.LL_RCC_HSE_DisableBypass) for [Anonymous Symbol]
    py32f0xx_ll_utils.o(.ARM.exidx.text.LL_RCC_HSE_Enable) refers to py32f0xx_ll_utils.o(.text.LL_RCC_HSE_Enable) for [Anonymous Symbol]
    py32f0xx_ll_utils.o(.text.LL_SetFlashLatency) refers to py32f0xx_ll_utils.o(.text.LL_FLASH_SetLatency) for LL_FLASH_SetLatency
    py32f0xx_ll_utils.o(.text.LL_SetFlashLatency) refers to py32f0xx_ll_utils.o(.text.LL_FLASH_GetLatency) for LL_FLASH_GetLatency
    py32f0xx_ll_utils.o(.ARM.exidx.text.LL_SetFlashLatency) refers to py32f0xx_ll_utils.o(.text.LL_SetFlashLatency) for [Anonymous Symbol]
    py32f0xx_ll_utils.o(.ARM.exidx.text.LL_FLASH_SetLatency) refers to py32f0xx_ll_utils.o(.text.LL_FLASH_SetLatency) for [Anonymous Symbol]
    py32f0xx_ll_utils.o(.ARM.exidx.text.LL_FLASH_GetLatency) refers to py32f0xx_ll_utils.o(.text.LL_FLASH_GetLatency) for [Anonymous Symbol]
    py32f0xx_ll_utils.o(.ARM.exidx.text.LL_RCC_PLL_IsReady) refers to py32f0xx_ll_utils.o(.text.LL_RCC_PLL_IsReady) for [Anonymous Symbol]
    py32f0xx_ll_utils.o(.ARM.exidx.text.LL_RCC_PLL_Enable) refers to py32f0xx_ll_utils.o(.text.LL_RCC_PLL_Enable) for [Anonymous Symbol]
    py32f0xx_ll_utils.o(.ARM.exidx.text.LL_RCC_SetAHBPrescaler) refers to py32f0xx_ll_utils.o(.text.LL_RCC_SetAHBPrescaler) for [Anonymous Symbol]
    py32f0xx_ll_utils.o(.ARM.exidx.text.LL_RCC_SetSysClkSource) refers to py32f0xx_ll_utils.o(.text.LL_RCC_SetSysClkSource) for [Anonymous Symbol]
    py32f0xx_ll_utils.o(.ARM.exidx.text.LL_RCC_GetSysClkSource) refers to py32f0xx_ll_utils.o(.text.LL_RCC_GetSysClkSource) for [Anonymous Symbol]
    py32f0xx_ll_utils.o(.ARM.exidx.text.LL_RCC_SetAPB1Prescaler) refers to py32f0xx_ll_utils.o(.text.LL_RCC_SetAPB1Prescaler) for [Anonymous Symbol]
    py32f0xx_bsp_exti.o(.text.BSP_EXTI_Config) refers to py32f0xx_ll_exti.o(.text.LL_EXTI_Init) for LL_EXTI_Init
    py32f0xx_bsp_exti.o(.text.BSP_EXTI_Config) refers to py32f0xx_bsp_exti.o(.text.LL_EXTI_SetEXTISource) for LL_EXTI_SetEXTISource
    py32f0xx_bsp_exti.o(.text.BSP_EXTI_Config) refers to py32f0xx_bsp_exti.o(.text.__NVIC_SetPriority) for __NVIC_SetPriority
    py32f0xx_bsp_exti.o(.text.BSP_EXTI_Config) refers to py32f0xx_bsp_exti.o(.text.__NVIC_EnableIRQ) for __NVIC_EnableIRQ
    py32f0xx_bsp_exti.o(.ARM.exidx.text.BSP_EXTI_Config) refers to py32f0xx_bsp_exti.o(.text.BSP_EXTI_Config) for [Anonymous Symbol]
    py32f0xx_bsp_exti.o(.ARM.exidx.text.LL_EXTI_SetEXTISource) refers to py32f0xx_bsp_exti.o(.text.LL_EXTI_SetEXTISource) for [Anonymous Symbol]
    py32f0xx_bsp_exti.o(.ARM.exidx.text.__NVIC_SetPriority) refers to py32f0xx_bsp_exti.o(.text.__NVIC_SetPriority) for [Anonymous Symbol]
    py32f0xx_bsp_exti.o(.ARM.exidx.text.__NVIC_EnableIRQ) refers to py32f0xx_bsp_exti.o(.text.__NVIC_EnableIRQ) for [Anonymous Symbol]
    py32f0xx_bsp_exti.o(.text.EXTI4_15_IRQHandler) refers to py32f0xx_bsp_exti.o(.text.LL_EXTI_IsActiveFlag) for LL_EXTI_IsActiveFlag
    py32f0xx_bsp_exti.o(.text.EXTI4_15_IRQHandler) refers to py32f0xx_bsp_exti.o(.text.LL_EXTI_ClearFlag) for LL_EXTI_ClearFlag
    py32f0xx_bsp_exti.o(.text.EXTI4_15_IRQHandler) refers to py32f0xx_bsp_exti.o(.bss.inttrig) for inttrig
    py32f0xx_bsp_exti.o(.text.EXTI4_15_IRQHandler) refers to main.o(.bss.cd_sleep) for cd_sleep
    py32f0xx_bsp_exti.o(.ARM.exidx.text.EXTI4_15_IRQHandler) refers to py32f0xx_bsp_exti.o(.text.EXTI4_15_IRQHandler) for [Anonymous Symbol]
    py32f0xx_bsp_exti.o(.ARM.exidx.text.LL_EXTI_IsActiveFlag) refers to py32f0xx_bsp_exti.o(.text.LL_EXTI_IsActiveFlag) for [Anonymous Symbol]
    py32f0xx_bsp_exti.o(.ARM.exidx.text.LL_EXTI_ClearFlag) refers to py32f0xx_bsp_exti.o(.text.LL_EXTI_ClearFlag) for [Anonymous Symbol]
    py32f0xx_bsp_exti.o(.text.EXTI2_3_IRQHandler) refers to py32f0xx_bsp_exti.o(.text.LL_EXTI_IsActiveFlag) for LL_EXTI_IsActiveFlag
    py32f0xx_bsp_exti.o(.text.EXTI2_3_IRQHandler) refers to py32f0xx_bsp_exti.o(.text.LL_EXTI_ClearFlag) for LL_EXTI_ClearFlag
    py32f0xx_bsp_exti.o(.text.EXTI2_3_IRQHandler) refers to py32f0xx_bsp_exti.o(.bss.keytrig) for keytrig
    py32f0xx_bsp_exti.o(.text.EXTI2_3_IRQHandler) refers to main.o(.bss.cd_sleep) for cd_sleep
    py32f0xx_bsp_exti.o(.ARM.exidx.text.EXTI2_3_IRQHandler) refers to py32f0xx_bsp_exti.o(.text.EXTI2_3_IRQHandler) for [Anonymous Symbol]
    py32f0xx_bsp_gpio.o(.text.BSP_GPIO_Config) refers to py32f0xx_bsp_gpio.o(.text.LL_IOP_GRP1_EnableClock) for LL_IOP_GRP1_EnableClock
    py32f0xx_bsp_gpio.o(.text.BSP_GPIO_Config) refers to py32f0xx_ll_gpio.o(.text.LL_GPIO_Init) for LL_GPIO_Init
    py32f0xx_bsp_gpio.o(.text.BSP_GPIO_Config) refers to py32f0xx_bsp_gpio.o(.text.LL_GPIO_ResetOutputPin) for LL_GPIO_ResetOutputPin
    py32f0xx_bsp_gpio.o(.ARM.exidx.text.BSP_GPIO_Config) refers to py32f0xx_bsp_gpio.o(.text.BSP_GPIO_Config) for [Anonymous Symbol]
    py32f0xx_bsp_gpio.o(.ARM.exidx.text.LL_IOP_GRP1_EnableClock) refers to py32f0xx_bsp_gpio.o(.text.LL_IOP_GRP1_EnableClock) for [Anonymous Symbol]
    py32f0xx_bsp_gpio.o(.ARM.exidx.text.LL_GPIO_ResetOutputPin) refers to py32f0xx_bsp_gpio.o(.text.LL_GPIO_ResetOutputPin) for [Anonymous Symbol]
    py32f0xx_bsp_i2c.o(.text.BSP_I2C_Config) refers to py32f0xx_bsp_i2c.o(.text.I2C_Unlock) for I2C_Unlock
    py32f0xx_bsp_i2c.o(.text.BSP_I2C_Config) refers to py32f0xx_ll_gpio.o(.text.LL_GPIO_Init) for LL_GPIO_Init
    py32f0xx_bsp_i2c.o(.text.BSP_I2C_Config) refers to py32f0xx_bsp_i2c.o(.text.LL_APB1_GRP1_EnableClock) for LL_APB1_GRP1_EnableClock
    py32f0xx_bsp_i2c.o(.text.BSP_I2C_Config) refers to py32f0xx_bsp_i2c.o(.text.LL_APB1_GRP1_ForceReset) for LL_APB1_GRP1_ForceReset
    py32f0xx_bsp_i2c.o(.text.BSP_I2C_Config) refers to py32f0xx_bsp_i2c.o(.text.LL_APB1_GRP1_ReleaseReset) for LL_APB1_GRP1_ReleaseReset
    py32f0xx_bsp_i2c.o(.text.BSP_I2C_Config) refers to py32f0xx_bsp_i2c.o(.text.LL_I2C_EnableReset) for LL_I2C_EnableReset
    py32f0xx_bsp_i2c.o(.text.BSP_I2C_Config) refers to py32f0xx_bsp_i2c.o(.text.LL_I2C_DisableReset) for LL_I2C_DisableReset
    py32f0xx_bsp_i2c.o(.text.BSP_I2C_Config) refers to py32f0xx_ll_i2c.o(.text.LL_I2C_Init) for LL_I2C_Init
    py32f0xx_bsp_i2c.o(.text.BSP_I2C_Config) refers to py32f0xx_bsp_i2c.o(.text.__NVIC_SetPriority) for __NVIC_SetPriority
    py32f0xx_bsp_i2c.o(.text.BSP_I2C_Config) refers to py32f0xx_bsp_i2c.o(.text.__NVIC_EnableIRQ) for __NVIC_EnableIRQ
    py32f0xx_bsp_i2c.o(.text.BSP_I2C_Config) refers to py32f0xx_bsp_i2c.o(.text.LL_I2C_EnableIT_ERR) for LL_I2C_EnableIT_ERR
    py32f0xx_bsp_i2c.o(.text.BSP_I2C_Config) refers to py32f0xx_bsp_i2c.o(.text.LL_I2C_DisableIT_BUF) for LL_I2C_DisableIT_BUF
    py32f0xx_bsp_i2c.o(.text.BSP_I2C_Config) refers to py32f0xx_bsp_i2c.o(.text.LL_I2C_DisableIT_EVT) for LL_I2C_DisableIT_EVT
    py32f0xx_bsp_i2c.o(.ARM.exidx.text.BSP_I2C_Config) refers to py32f0xx_bsp_i2c.o(.text.BSP_I2C_Config) for [Anonymous Symbol]
    py32f0xx_bsp_i2c.o(.text.I2C_Unlock) refers to py32f0xx_bsp_i2c.o(.text.LL_GPIO_ResetOutputPin) for LL_GPIO_ResetOutputPin
    py32f0xx_bsp_i2c.o(.text.I2C_Unlock) refers to py32f0xx_ll_gpio.o(.text.LL_GPIO_Init) for LL_GPIO_Init
    py32f0xx_bsp_i2c.o(.text.I2C_Unlock) refers to py32f0xx_bsp_i2c.o(.text.LL_GPIO_SetOutputPin) for LL_GPIO_SetOutputPin
    py32f0xx_bsp_i2c.o(.text.I2C_Unlock) refers to py32f0xx_bsp_i2c.o(.text.LL_GPIO_IsInputPinSet) for LL_GPIO_IsInputPinSet
    py32f0xx_bsp_i2c.o(.ARM.exidx.text.I2C_Unlock) refers to py32f0xx_bsp_i2c.o(.text.I2C_Unlock) for [Anonymous Symbol]
    py32f0xx_bsp_i2c.o(.ARM.exidx.text.LL_APB1_GRP1_EnableClock) refers to py32f0xx_bsp_i2c.o(.text.LL_APB1_GRP1_EnableClock) for [Anonymous Symbol]
    py32f0xx_bsp_i2c.o(.ARM.exidx.text.LL_APB1_GRP1_ForceReset) refers to py32f0xx_bsp_i2c.o(.text.LL_APB1_GRP1_ForceReset) for [Anonymous Symbol]
    py32f0xx_bsp_i2c.o(.ARM.exidx.text.LL_APB1_GRP1_ReleaseReset) refers to py32f0xx_bsp_i2c.o(.text.LL_APB1_GRP1_ReleaseReset) for [Anonymous Symbol]
    py32f0xx_bsp_i2c.o(.ARM.exidx.text.LL_I2C_EnableReset) refers to py32f0xx_bsp_i2c.o(.text.LL_I2C_EnableReset) for [Anonymous Symbol]
    py32f0xx_bsp_i2c.o(.ARM.exidx.text.LL_I2C_DisableReset) refers to py32f0xx_bsp_i2c.o(.text.LL_I2C_DisableReset) for [Anonymous Symbol]
    py32f0xx_bsp_i2c.o(.ARM.exidx.text.__NVIC_SetPriority) refers to py32f0xx_bsp_i2c.o(.text.__NVIC_SetPriority) for [Anonymous Symbol]
    py32f0xx_bsp_i2c.o(.ARM.exidx.text.__NVIC_EnableIRQ) refers to py32f0xx_bsp_i2c.o(.text.__NVIC_EnableIRQ) for [Anonymous Symbol]
    py32f0xx_bsp_i2c.o(.ARM.exidx.text.LL_I2C_EnableIT_ERR) refers to py32f0xx_bsp_i2c.o(.text.LL_I2C_EnableIT_ERR) for [Anonymous Symbol]
    py32f0xx_bsp_i2c.o(.ARM.exidx.text.LL_I2C_DisableIT_BUF) refers to py32f0xx_bsp_i2c.o(.text.LL_I2C_DisableIT_BUF) for [Anonymous Symbol]
    py32f0xx_bsp_i2c.o(.ARM.exidx.text.LL_I2C_DisableIT_EVT) refers to py32f0xx_bsp_i2c.o(.text.LL_I2C_DisableIT_EVT) for [Anonymous Symbol]
    py32f0xx_bsp_i2c.o(.text.APP_I2C_TestAddress) refers to py32f0xx_bsp_i2c.o(.text.LL_I2C_IsActiveFlag_BUSY) for LL_I2C_IsActiveFlag_BUSY
    py32f0xx_bsp_i2c.o(.text.APP_I2C_TestAddress) refers to py32f0xx_bsp_i2c.o(.text.LL_I2C_DisableBitPOS) for LL_I2C_DisableBitPOS
    py32f0xx_bsp_i2c.o(.text.APP_I2C_TestAddress) refers to py32f0xx_bsp_i2c.o(.text.LL_I2C_GenerateStartCondition) for LL_I2C_GenerateStartCondition
    py32f0xx_bsp_i2c.o(.text.APP_I2C_TestAddress) refers to py32f0xx_bsp_i2c.o(.text.LL_I2C_IsActiveFlag_SB) for LL_I2C_IsActiveFlag_SB
    py32f0xx_bsp_i2c.o(.text.APP_I2C_TestAddress) refers to py32f0xx_bsp_i2c.o(.text.LL_I2C_TransmitData8) for LL_I2C_TransmitData8
    py32f0xx_bsp_i2c.o(.text.APP_I2C_TestAddress) refers to py32f0xx_bsp_i2c.o(.text.LL_I2C_IsActiveFlag_ADDR) for LL_I2C_IsActiveFlag_ADDR
    py32f0xx_bsp_i2c.o(.text.APP_I2C_TestAddress) refers to py32f0xx_bsp_i2c.o(.text.LL_I2C_ClearFlag_ADDR) for LL_I2C_ClearFlag_ADDR
    py32f0xx_bsp_i2c.o(.text.APP_I2C_TestAddress) refers to py32f0xx_bsp_i2c.o(.text.LL_I2C_GenerateStopCondition) for LL_I2C_GenerateStopCondition
    py32f0xx_bsp_i2c.o(.ARM.exidx.text.APP_I2C_TestAddress) refers to py32f0xx_bsp_i2c.o(.text.APP_I2C_TestAddress) for [Anonymous Symbol]
    py32f0xx_bsp_i2c.o(.ARM.exidx.text.LL_I2C_IsActiveFlag_BUSY) refers to py32f0xx_bsp_i2c.o(.text.LL_I2C_IsActiveFlag_BUSY) for [Anonymous Symbol]
    py32f0xx_bsp_i2c.o(.ARM.exidx.text.LL_I2C_DisableBitPOS) refers to py32f0xx_bsp_i2c.o(.text.LL_I2C_DisableBitPOS) for [Anonymous Symbol]
    py32f0xx_bsp_i2c.o(.ARM.exidx.text.LL_I2C_GenerateStartCondition) refers to py32f0xx_bsp_i2c.o(.text.LL_I2C_GenerateStartCondition) for [Anonymous Symbol]
    py32f0xx_bsp_i2c.o(.ARM.exidx.text.LL_I2C_IsActiveFlag_SB) refers to py32f0xx_bsp_i2c.o(.text.LL_I2C_IsActiveFlag_SB) for [Anonymous Symbol]
    py32f0xx_bsp_i2c.o(.ARM.exidx.text.LL_I2C_TransmitData8) refers to py32f0xx_bsp_i2c.o(.text.LL_I2C_TransmitData8) for [Anonymous Symbol]
    py32f0xx_bsp_i2c.o(.ARM.exidx.text.LL_I2C_IsActiveFlag_ADDR) refers to py32f0xx_bsp_i2c.o(.text.LL_I2C_IsActiveFlag_ADDR) for [Anonymous Symbol]
    py32f0xx_bsp_i2c.o(.ARM.exidx.text.LL_I2C_GenerateStopCondition) refers to py32f0xx_bsp_i2c.o(.text.LL_I2C_GenerateStopCondition) for [Anonymous Symbol]
    py32f0xx_bsp_i2c.o(.ARM.exidx.text.LL_I2C_ClearFlag_ADDR) refers to py32f0xx_bsp_i2c.o(.text.LL_I2C_ClearFlag_ADDR) for [Anonymous Symbol]
    py32f0xx_bsp_i2c.o(.text.APP_I2C_Transmit) refers to py32f0xx_bsp_i2c.o(.text.LL_I2C_IsActiveFlag_BUSY) for LL_I2C_IsActiveFlag_BUSY
    py32f0xx_bsp_i2c.o(.text.APP_I2C_Transmit) refers to py32f0xx_bsp_i2c.o(.text.LL_I2C_DisableBitPOS) for LL_I2C_DisableBitPOS
    py32f0xx_bsp_i2c.o(.text.APP_I2C_Transmit) refers to py32f0xx_bsp_i2c.o(.text.LL_I2C_GenerateStartCondition) for LL_I2C_GenerateStartCondition
    py32f0xx_bsp_i2c.o(.text.APP_I2C_Transmit) refers to py32f0xx_bsp_i2c.o(.text.LL_I2C_IsActiveFlag_SB) for LL_I2C_IsActiveFlag_SB
    py32f0xx_bsp_i2c.o(.text.APP_I2C_Transmit) refers to py32f0xx_bsp_i2c.o(.text.LL_I2C_TransmitData8) for LL_I2C_TransmitData8
    py32f0xx_bsp_i2c.o(.text.APP_I2C_Transmit) refers to py32f0xx_bsp_i2c.o(.text.LL_I2C_IsActiveFlag_ADDR) for LL_I2C_IsActiveFlag_ADDR
    py32f0xx_bsp_i2c.o(.text.APP_I2C_Transmit) refers to py32f0xx_bsp_i2c.o(.text.LL_I2C_ClearFlag_ADDR) for LL_I2C_ClearFlag_ADDR
    py32f0xx_bsp_i2c.o(.text.APP_I2C_Transmit) refers to py32f0xx_bsp_i2c.o(.text.LL_I2C_IsActiveFlag_TXE) for LL_I2C_IsActiveFlag_TXE
    py32f0xx_bsp_i2c.o(.text.APP_I2C_Transmit) refers to py32f0xx_bsp_i2c.o(.text.LL_I2C_GenerateStopCondition) for LL_I2C_GenerateStopCondition
    py32f0xx_bsp_i2c.o(.text.APP_I2C_Transmit) refers to py32f0xx_bsp_i2c.o(.text.LL_I2C_IsActiveFlag_BTF) for LL_I2C_IsActiveFlag_BTF
    py32f0xx_bsp_i2c.o(.ARM.exidx.text.APP_I2C_Transmit) refers to py32f0xx_bsp_i2c.o(.text.APP_I2C_Transmit) for [Anonymous Symbol]
    py32f0xx_bsp_i2c.o(.ARM.exidx.text.LL_I2C_IsActiveFlag_TXE) refers to py32f0xx_bsp_i2c.o(.text.LL_I2C_IsActiveFlag_TXE) for [Anonymous Symbol]
    py32f0xx_bsp_i2c.o(.ARM.exidx.text.LL_I2C_IsActiveFlag_BTF) refers to py32f0xx_bsp_i2c.o(.text.LL_I2C_IsActiveFlag_BTF) for [Anonymous Symbol]
    py32f0xx_bsp_i2c.o(.text.APP_I2C_Receive) refers to py32f0xx_bsp_i2c.o(.text.LL_I2C_IsActiveFlag_BUSY) for LL_I2C_IsActiveFlag_BUSY
    py32f0xx_bsp_i2c.o(.text.APP_I2C_Receive) refers to py32f0xx_bsp_i2c.o(.text.LL_I2C_DisableBitPOS) for LL_I2C_DisableBitPOS
    py32f0xx_bsp_i2c.o(.text.APP_I2C_Receive) refers to py32f0xx_bsp_i2c.o(.text.LL_I2C_AcknowledgeNextData) for LL_I2C_AcknowledgeNextData
    py32f0xx_bsp_i2c.o(.text.APP_I2C_Receive) refers to py32f0xx_bsp_i2c.o(.text.LL_I2C_GenerateStartCondition) for LL_I2C_GenerateStartCondition
    py32f0xx_bsp_i2c.o(.text.APP_I2C_Receive) refers to py32f0xx_bsp_i2c.o(.text.LL_I2C_IsActiveFlag_SB) for LL_I2C_IsActiveFlag_SB
    py32f0xx_bsp_i2c.o(.text.APP_I2C_Receive) refers to py32f0xx_bsp_i2c.o(.text.LL_I2C_TransmitData8) for LL_I2C_TransmitData8
    py32f0xx_bsp_i2c.o(.text.APP_I2C_Receive) refers to py32f0xx_bsp_i2c.o(.text.LL_I2C_IsActiveFlag_ADDR) for LL_I2C_IsActiveFlag_ADDR
    py32f0xx_bsp_i2c.o(.text.APP_I2C_Receive) refers to py32f0xx_bsp_i2c.o(.text.LL_I2C_ClearFlag_ADDR) for LL_I2C_ClearFlag_ADDR
    py32f0xx_bsp_i2c.o(.text.APP_I2C_Receive) refers to py32f0xx_bsp_i2c.o(.text.LL_I2C_IsActiveFlag_TXE) for LL_I2C_IsActiveFlag_TXE
    py32f0xx_bsp_i2c.o(.text.APP_I2C_Receive) refers to py32f0xx_bsp_i2c.o(.text.LL_I2C_IsActiveFlag_BTF) for LL_I2C_IsActiveFlag_BTF
    py32f0xx_bsp_i2c.o(.text.APP_I2C_Receive) refers to py32f0xx_bsp_i2c.o(.text.LL_I2C_GenerateStopCondition) for LL_I2C_GenerateStopCondition
    py32f0xx_bsp_i2c.o(.text.APP_I2C_Receive) refers to py32f0xx_bsp_i2c.o(.text.LL_I2C_EnableBitPOS) for LL_I2C_EnableBitPOS
    py32f0xx_bsp_i2c.o(.text.APP_I2C_Receive) refers to py32f0xx_bsp_i2c.o(.text.LL_I2C_ReceiveData8) for LL_I2C_ReceiveData8
    py32f0xx_bsp_i2c.o(.text.APP_I2C_Receive) refers to py32f0xx_bsp_i2c.o(.text.LL_I2C_IsActiveFlag_RXNE) for LL_I2C_IsActiveFlag_RXNE
    py32f0xx_bsp_i2c.o(.ARM.exidx.text.APP_I2C_Receive) refers to py32f0xx_bsp_i2c.o(.text.APP_I2C_Receive) for [Anonymous Symbol]
    py32f0xx_bsp_i2c.o(.ARM.exidx.text.LL_I2C_AcknowledgeNextData) refers to py32f0xx_bsp_i2c.o(.text.LL_I2C_AcknowledgeNextData) for [Anonymous Symbol]
    py32f0xx_bsp_i2c.o(.ARM.exidx.text.LL_I2C_EnableBitPOS) refers to py32f0xx_bsp_i2c.o(.text.LL_I2C_EnableBitPOS) for [Anonymous Symbol]
    py32f0xx_bsp_i2c.o(.ARM.exidx.text.LL_I2C_IsActiveFlag_RXNE) refers to py32f0xx_bsp_i2c.o(.text.LL_I2C_IsActiveFlag_RXNE) for [Anonymous Symbol]
    py32f0xx_bsp_i2c.o(.ARM.exidx.text.LL_I2C_ReceiveData8) refers to py32f0xx_bsp_i2c.o(.text.LL_I2C_ReceiveData8) for [Anonymous Symbol]
    py32f0xx_bsp_i2c.o(.ARM.exidx.text.LL_GPIO_ResetOutputPin) refers to py32f0xx_bsp_i2c.o(.text.LL_GPIO_ResetOutputPin) for [Anonymous Symbol]
    py32f0xx_bsp_i2c.o(.ARM.exidx.text.LL_GPIO_SetOutputPin) refers to py32f0xx_bsp_i2c.o(.text.LL_GPIO_SetOutputPin) for [Anonymous Symbol]
    py32f0xx_bsp_i2c.o(.ARM.exidx.text.LL_GPIO_IsInputPinSet) refers to py32f0xx_bsp_i2c.o(.text.LL_GPIO_IsInputPinSet) for [Anonymous Symbol]
    py32f0xx_bsp_i2c.o(.text.I2C_Diagnosis) refers to py32f0xx_bsp_i2c.o(.text.LL_I2C_EnableReset) for LL_I2C_EnableReset
    py32f0xx_bsp_i2c.o(.text.I2C_Diagnosis) refers to py32f0xx_bsp_i2c.o(.text.BSP_I2C_Config) for BSP_I2C_Config
    py32f0xx_bsp_i2c.o(.text.I2C_Diagnosis) refers to py32f0xx_bsp_i2c.o(.bss.I2C1_Status) for I2C1_Status
    py32f0xx_bsp_i2c.o(.ARM.exidx.text.I2C_Diagnosis) refers to py32f0xx_bsp_i2c.o(.text.I2C_Diagnosis) for [Anonymous Symbol]
    py32f0xx_bsp_i2c.o(.text.thread_i2c_wdt) refers to py32f0xx_bsp_i2c.o(.text.I2C_Diagnosis) for I2C_Diagnosis
    py32f0xx_bsp_i2c.o(.text.thread_i2c_wdt) refers to py32f0xx_bsp_i2c.o(.text.LL_I2C_IsActiveFlag_BUSY) for LL_I2C_IsActiveFlag_BUSY
    py32f0xx_bsp_i2c.o(.text.thread_i2c_wdt) refers to py32f0xx_bsp_i2c.o(.bss.I2C1_Status) for I2C1_Status
    py32f0xx_bsp_i2c.o(.text.thread_i2c_wdt) refers to py32f0xx_it.o(.bss.millis) for millis
    py32f0xx_bsp_i2c.o(.text.thread_i2c_wdt) refers to py32f0xx_bsp_i2c.o(.bss.i2cwdtovf) for i2cwdtovf
    py32f0xx_bsp_i2c.o(.ARM.exidx.text.thread_i2c_wdt) refers to py32f0xx_bsp_i2c.o(.text.thread_i2c_wdt) for [Anonymous Symbol]
    py32f0xx_bsp_i2c.o(.text.ASYNC_I2C_Transmit) refers to py32f0xx_bsp_i2c.o(.text.LL_I2C_IsActiveFlag_BUSY) for LL_I2C_IsActiveFlag_BUSY
    py32f0xx_bsp_i2c.o(.text.ASYNC_I2C_Transmit) refers to py32f0xx_bsp_i2c.o(.text.LL_I2C_EnableIT_TX) for LL_I2C_EnableIT_TX
    py32f0xx_bsp_i2c.o(.text.ASYNC_I2C_Transmit) refers to py32f0xx_bsp_i2c.o(.text.LL_I2C_DisableBitPOS) for LL_I2C_DisableBitPOS
    py32f0xx_bsp_i2c.o(.text.ASYNC_I2C_Transmit) refers to py32f0xx_bsp_i2c.o(.text.LL_I2C_GenerateStartCondition) for LL_I2C_GenerateStartCondition
    py32f0xx_bsp_i2c.o(.text.ASYNC_I2C_Transmit) refers to py32f0xx_bsp_i2c.o(.bss.I2C1_Status) for I2C1_Status
    py32f0xx_bsp_i2c.o(.text.ASYNC_I2C_Transmit) refers to py32f0xx_it.o(.bss.millis) for millis
    py32f0xx_bsp_i2c.o(.text.ASYNC_I2C_Transmit) refers to py32f0xx_bsp_i2c.o(.bss.i2cwdtovf) for i2cwdtovf
    py32f0xx_bsp_i2c.o(.ARM.exidx.text.ASYNC_I2C_Transmit) refers to py32f0xx_bsp_i2c.o(.text.ASYNC_I2C_Transmit) for [Anonymous Symbol]
    py32f0xx_bsp_i2c.o(.ARM.exidx.text.LL_I2C_EnableIT_TX) refers to py32f0xx_bsp_i2c.o(.text.LL_I2C_EnableIT_TX) for [Anonymous Symbol]
    py32f0xx_bsp_i2c.o(.text.ASYNC_I2C_Receive) refers to py32f0xx_bsp_i2c.o(.text.LL_I2C_IsActiveFlag_BUSY) for LL_I2C_IsActiveFlag_BUSY
    py32f0xx_bsp_i2c.o(.text.ASYNC_I2C_Receive) refers to py32f0xx_bsp_i2c.o(.text.LL_I2C_EnableIT_TX) for LL_I2C_EnableIT_TX
    py32f0xx_bsp_i2c.o(.text.ASYNC_I2C_Receive) refers to py32f0xx_bsp_i2c.o(.text.LL_I2C_DisableBitPOS) for LL_I2C_DisableBitPOS
    py32f0xx_bsp_i2c.o(.text.ASYNC_I2C_Receive) refers to py32f0xx_bsp_i2c.o(.text.LL_I2C_GenerateStartCondition) for LL_I2C_GenerateStartCondition
    py32f0xx_bsp_i2c.o(.text.ASYNC_I2C_Receive) refers to py32f0xx_bsp_i2c.o(.bss.I2C1_Status) for I2C1_Status
    py32f0xx_bsp_i2c.o(.text.ASYNC_I2C_Receive) refers to py32f0xx_it.o(.bss.millis) for millis
    py32f0xx_bsp_i2c.o(.text.ASYNC_I2C_Receive) refers to py32f0xx_bsp_i2c.o(.bss.i2cwdtovf) for i2cwdtovf
    py32f0xx_bsp_i2c.o(.ARM.exidx.text.ASYNC_I2C_Receive) refers to py32f0xx_bsp_i2c.o(.text.ASYNC_I2C_Receive) for [Anonymous Symbol]
    py32f0xx_bsp_i2c.o(.text.I2C1_IRQHandler) refers to py32f0xx_bsp_i2c.o(.text.LL_I2C_IsActiveFlag_SB) for LL_I2C_IsActiveFlag_SB
    py32f0xx_bsp_i2c.o(.text.I2C1_IRQHandler) refers to py32f0xx_bsp_i2c.o(.text.LL_I2C_TransmitData8) for LL_I2C_TransmitData8
    py32f0xx_bsp_i2c.o(.text.I2C1_IRQHandler) refers to py32f0xx_bsp_i2c.o(.text.LL_I2C_IsActiveFlag_ADDR) for LL_I2C_IsActiveFlag_ADDR
    py32f0xx_bsp_i2c.o(.text.I2C1_IRQHandler) refers to py32f0xx_bsp_i2c.o(.text.LL_I2C_ClearFlag_ADDR) for LL_I2C_ClearFlag_ADDR
    py32f0xx_bsp_i2c.o(.text.I2C1_IRQHandler) refers to py32f0xx_bsp_i2c.o(.text.LL_I2C_AcknowledgeNextData) for LL_I2C_AcknowledgeNextData
    py32f0xx_bsp_i2c.o(.text.I2C1_IRQHandler) refers to py32f0xx_bsp_i2c.o(.text.LL_I2C_GenerateStopCondition) for LL_I2C_GenerateStopCondition
    py32f0xx_bsp_i2c.o(.text.I2C1_IRQHandler) refers to py32f0xx_bsp_i2c.o(.text.LL_I2C_DisableIT_RX) for LL_I2C_DisableIT_RX
    py32f0xx_bsp_i2c.o(.text.I2C1_IRQHandler) refers to py32f0xx_bsp_i2c.o(.text.LL_I2C_IsActiveFlag_BTF) for LL_I2C_IsActiveFlag_BTF
    py32f0xx_bsp_i2c.o(.text.I2C1_IRQHandler) refers to py32f0xx_bsp_i2c.o(.text.LL_I2C_DisableIT_TX) for LL_I2C_DisableIT_TX
    py32f0xx_bsp_i2c.o(.text.I2C1_IRQHandler) refers to py32f0xx_bsp_i2c.o(.text.LL_I2C_EnableIT_RX) for LL_I2C_EnableIT_RX
    py32f0xx_bsp_i2c.o(.text.I2C1_IRQHandler) refers to py32f0xx_bsp_i2c.o(.text.LL_I2C_GenerateStartCondition) for LL_I2C_GenerateStartCondition
    py32f0xx_bsp_i2c.o(.text.I2C1_IRQHandler) refers to py32f0xx_bsp_i2c.o(.text.LL_I2C_ReceiveData8) for LL_I2C_ReceiveData8
    py32f0xx_bsp_i2c.o(.text.I2C1_IRQHandler) refers to py32f0xx_bsp_i2c.o(.text.LL_I2C_IsActiveFlag_RXNE) for LL_I2C_IsActiveFlag_RXNE
    py32f0xx_bsp_i2c.o(.text.I2C1_IRQHandler) refers to py32f0xx_bsp_i2c.o(.text.LL_I2C_DisableIT_BUF) for LL_I2C_DisableIT_BUF
    py32f0xx_bsp_i2c.o(.text.I2C1_IRQHandler) refers to py32f0xx_bsp_i2c.o(.text.LL_I2C_IsActiveFlag_TXE) for LL_I2C_IsActiveFlag_TXE
    py32f0xx_bsp_i2c.o(.text.I2C1_IRQHandler) refers to py32f0xx_bsp_i2c.o(.text.LL_I2C_IsActiveFlag_AF) for LL_I2C_IsActiveFlag_AF
    py32f0xx_bsp_i2c.o(.text.I2C1_IRQHandler) refers to py32f0xx_bsp_i2c.o(.text.LL_I2C_ClearFlag_AF) for LL_I2C_ClearFlag_AF
    py32f0xx_bsp_i2c.o(.text.I2C1_IRQHandler) refers to py32f0xx_bsp_i2c.o(.text.LL_I2C_DisableIT_EVT) for LL_I2C_DisableIT_EVT
    py32f0xx_bsp_i2c.o(.text.I2C1_IRQHandler) refers to py32f0xx_bsp_i2c.o(.text.LL_I2C_IsActiveFlag_BERR) for LL_I2C_IsActiveFlag_BERR
    py32f0xx_bsp_i2c.o(.text.I2C1_IRQHandler) refers to py32f0xx_bsp_i2c.o(.text.LL_I2C_ClearFlag_BERR) for LL_I2C_ClearFlag_BERR
    py32f0xx_bsp_i2c.o(.text.I2C1_IRQHandler) refers to py32f0xx_bsp_i2c.o(.text.I2C_Diagnosis) for I2C_Diagnosis
    py32f0xx_bsp_i2c.o(.text.I2C1_IRQHandler) refers to py32f0xx_it.o(.bss.millis) for millis
    py32f0xx_bsp_i2c.o(.text.I2C1_IRQHandler) refers to py32f0xx_bsp_i2c.o(.bss.i2cwdtovf) for i2cwdtovf
    py32f0xx_bsp_i2c.o(.text.I2C1_IRQHandler) refers to py32f0xx_bsp_i2c.o(.bss.I2C1_Status) for I2C1_Status
    py32f0xx_bsp_i2c.o(.ARM.exidx.text.I2C1_IRQHandler) refers to py32f0xx_bsp_i2c.o(.text.I2C1_IRQHandler) for [Anonymous Symbol]
    py32f0xx_bsp_i2c.o(.ARM.exidx.text.LL_I2C_DisableIT_RX) refers to py32f0xx_bsp_i2c.o(.text.LL_I2C_DisableIT_RX) for [Anonymous Symbol]
    py32f0xx_bsp_i2c.o(.ARM.exidx.text.LL_I2C_DisableIT_TX) refers to py32f0xx_bsp_i2c.o(.text.LL_I2C_DisableIT_TX) for [Anonymous Symbol]
    py32f0xx_bsp_i2c.o(.ARM.exidx.text.LL_I2C_EnableIT_RX) refers to py32f0xx_bsp_i2c.o(.text.LL_I2C_EnableIT_RX) for [Anonymous Symbol]
    py32f0xx_bsp_i2c.o(.ARM.exidx.text.LL_I2C_IsActiveFlag_AF) refers to py32f0xx_bsp_i2c.o(.text.LL_I2C_IsActiveFlag_AF) for [Anonymous Symbol]
    py32f0xx_bsp_i2c.o(.ARM.exidx.text.LL_I2C_ClearFlag_AF) refers to py32f0xx_bsp_i2c.o(.text.LL_I2C_ClearFlag_AF) for [Anonymous Symbol]
    py32f0xx_bsp_i2c.o(.ARM.exidx.text.LL_I2C_IsActiveFlag_BERR) refers to py32f0xx_bsp_i2c.o(.text.LL_I2C_IsActiveFlag_BERR) for [Anonymous Symbol]
    py32f0xx_bsp_i2c.o(.ARM.exidx.text.LL_I2C_ClearFlag_BERR) refers to py32f0xx_bsp_i2c.o(.text.LL_I2C_ClearFlag_BERR) for [Anonymous Symbol]
    py32f0xx_bsp_pwr.o(.text.BSP_PWR_Config) refers to py32f0xx_bsp_pwr.o(.text.LL_LPM_DisableEventOnPend) for LL_LPM_DisableEventOnPend
    py32f0xx_bsp_pwr.o(.text.BSP_PWR_Config) refers to py32f0xx_bsp_pwr.o(.text.LL_PWR_SetRegulVoltageScaling) for LL_PWR_SetRegulVoltageScaling
    py32f0xx_bsp_pwr.o(.text.BSP_PWR_Config) refers to py32f0xx_bsp_pwr.o(.text.LL_PWR_EnableLowPowerRunMode) for LL_PWR_EnableLowPowerRunMode
    py32f0xx_bsp_pwr.o(.text.BSP_PWR_Config) refers to py32f0xx_bsp_pwr.o(.text.LL_LPM_DisableSleepOnExit) for LL_LPM_DisableSleepOnExit
    py32f0xx_bsp_pwr.o(.text.BSP_PWR_Config) refers to py32f0xx_bsp_pwr.o(.text.LL_LPM_EnableSleep) for LL_LPM_EnableSleep
    py32f0xx_bsp_pwr.o(.ARM.exidx.text.BSP_PWR_Config) refers to py32f0xx_bsp_pwr.o(.text.BSP_PWR_Config) for [Anonymous Symbol]
    py32f0xx_bsp_pwr.o(.ARM.exidx.text.LL_LPM_DisableEventOnPend) refers to py32f0xx_bsp_pwr.o(.text.LL_LPM_DisableEventOnPend) for [Anonymous Symbol]
    py32f0xx_bsp_pwr.o(.ARM.exidx.text.LL_PWR_SetRegulVoltageScaling) refers to py32f0xx_bsp_pwr.o(.text.LL_PWR_SetRegulVoltageScaling) for [Anonymous Symbol]
    py32f0xx_bsp_pwr.o(.ARM.exidx.text.LL_PWR_EnableLowPowerRunMode) refers to py32f0xx_bsp_pwr.o(.text.LL_PWR_EnableLowPowerRunMode) for [Anonymous Symbol]
    py32f0xx_bsp_pwr.o(.ARM.exidx.text.LL_LPM_DisableSleepOnExit) refers to py32f0xx_bsp_pwr.o(.text.LL_LPM_DisableSleepOnExit) for [Anonymous Symbol]
    py32f0xx_bsp_pwr.o(.ARM.exidx.text.LL_LPM_EnableSleep) refers to py32f0xx_bsp_pwr.o(.text.LL_LPM_EnableSleep) for [Anonymous Symbol]
    py32f0xx_bsp_rcc.o(.text.BSP_SystemClockConfig) refers to py32f0xx_bsp_rcc.o(.text.LL_APB1_GRP2_EnableClock) for LL_APB1_GRP2_EnableClock
    py32f0xx_bsp_rcc.o(.text.BSP_SystemClockConfig) refers to py32f0xx_bsp_rcc.o(.text.LL_APB1_GRP1_EnableClock) for LL_APB1_GRP1_EnableClock
    py32f0xx_bsp_rcc.o(.text.BSP_SystemClockConfig) refers to py32f0xx_bsp_rcc.o(.text.LL_RCC_HSI_Enable) for LL_RCC_HSI_Enable
    py32f0xx_bsp_rcc.o(.text.BSP_SystemClockConfig) refers to py32f0xx_bsp_rcc.o(.text.LL_RCC_HSI_SetCalibFreq) for LL_RCC_HSI_SetCalibFreq
    py32f0xx_bsp_rcc.o(.text.BSP_SystemClockConfig) refers to py32f0xx_bsp_rcc.o(.text.LL_RCC_HSI_IsReady) for LL_RCC_HSI_IsReady
    py32f0xx_bsp_rcc.o(.text.BSP_SystemClockConfig) refers to py32f0xx_bsp_rcc.o(.text.LL_RCC_SetAHBPrescaler) for LL_RCC_SetAHBPrescaler
    py32f0xx_bsp_rcc.o(.text.BSP_SystemClockConfig) refers to py32f0xx_bsp_rcc.o(.text.LL_RCC_SetSysClkSource) for LL_RCC_SetSysClkSource
    py32f0xx_bsp_rcc.o(.text.BSP_SystemClockConfig) refers to py32f0xx_bsp_rcc.o(.text.LL_RCC_GetSysClkSource) for LL_RCC_GetSysClkSource
    py32f0xx_bsp_rcc.o(.text.BSP_SystemClockConfig) refers to py32f0xx_bsp_rcc.o(.text.LL_RCC_SetAPB1Prescaler) for LL_RCC_SetAPB1Prescaler
    py32f0xx_bsp_rcc.o(.text.BSP_SystemClockConfig) refers to py32f0xx_bsp_rcc.o(.text.LL_InitTick) for LL_InitTick
    py32f0xx_bsp_rcc.o(.text.BSP_SystemClockConfig) refers to py32f0xx_bsp_rcc.o(.text.LL_SYSTICK_EnableIT) for LL_SYSTICK_EnableIT
    py32f0xx_bsp_rcc.o(.text.BSP_SystemClockConfig) refers to py32f0xx_bsp_rcc.o(.text.LL_FLASH_SetLatency) for LL_FLASH_SetLatency
    py32f0xx_bsp_rcc.o(.text.BSP_SystemClockConfig) refers to py32f0xx_ll_utils.o(.text.LL_SetSystemCoreClock) for LL_SetSystemCoreClock
    py32f0xx_bsp_rcc.o(.text.BSP_SystemClockConfig) refers to py32f0xx_bsp_rcc.o(.text.LL_RCC_LSE_Disable) for LL_RCC_LSE_Disable
    py32f0xx_bsp_rcc.o(.text.BSP_SystemClockConfig) refers to py32f0xx_bsp_rcc.o(.text.LL_RCC_HSE_Disable) for LL_RCC_HSE_Disable
    py32f0xx_bsp_rcc.o(.text.BSP_SystemClockConfig) refers to py32f0xx_bsp_rcc.o(.text.LL_RCC_LSI_Disable) for LL_RCC_LSI_Disable
    py32f0xx_bsp_rcc.o(.ARM.exidx.text.BSP_SystemClockConfig) refers to py32f0xx_bsp_rcc.o(.text.BSP_SystemClockConfig) for [Anonymous Symbol]
    py32f0xx_bsp_rcc.o(.ARM.exidx.text.LL_APB1_GRP2_EnableClock) refers to py32f0xx_bsp_rcc.o(.text.LL_APB1_GRP2_EnableClock) for [Anonymous Symbol]
    py32f0xx_bsp_rcc.o(.ARM.exidx.text.LL_APB1_GRP1_EnableClock) refers to py32f0xx_bsp_rcc.o(.text.LL_APB1_GRP1_EnableClock) for [Anonymous Symbol]
    py32f0xx_bsp_rcc.o(.ARM.exidx.text.LL_RCC_HSI_Enable) refers to py32f0xx_bsp_rcc.o(.text.LL_RCC_HSI_Enable) for [Anonymous Symbol]
    py32f0xx_bsp_rcc.o(.ARM.exidx.text.LL_RCC_HSI_SetCalibFreq) refers to py32f0xx_bsp_rcc.o(.text.LL_RCC_HSI_SetCalibFreq) for [Anonymous Symbol]
    py32f0xx_bsp_rcc.o(.ARM.exidx.text.LL_RCC_HSI_IsReady) refers to py32f0xx_bsp_rcc.o(.text.LL_RCC_HSI_IsReady) for [Anonymous Symbol]
    py32f0xx_bsp_rcc.o(.ARM.exidx.text.LL_RCC_SetAHBPrescaler) refers to py32f0xx_bsp_rcc.o(.text.LL_RCC_SetAHBPrescaler) for [Anonymous Symbol]
    py32f0xx_bsp_rcc.o(.ARM.exidx.text.LL_RCC_SetSysClkSource) refers to py32f0xx_bsp_rcc.o(.text.LL_RCC_SetSysClkSource) for [Anonymous Symbol]
    py32f0xx_bsp_rcc.o(.ARM.exidx.text.LL_RCC_GetSysClkSource) refers to py32f0xx_bsp_rcc.o(.text.LL_RCC_GetSysClkSource) for [Anonymous Symbol]
    py32f0xx_bsp_rcc.o(.ARM.exidx.text.LL_RCC_SetAPB1Prescaler) refers to py32f0xx_bsp_rcc.o(.text.LL_RCC_SetAPB1Prescaler) for [Anonymous Symbol]
    py32f0xx_bsp_rcc.o(.ARM.exidx.text.LL_InitTick) refers to py32f0xx_bsp_rcc.o(.text.LL_InitTick) for [Anonymous Symbol]
    py32f0xx_bsp_rcc.o(.ARM.exidx.text.LL_SYSTICK_EnableIT) refers to py32f0xx_bsp_rcc.o(.text.LL_SYSTICK_EnableIT) for [Anonymous Symbol]
    py32f0xx_bsp_rcc.o(.ARM.exidx.text.LL_FLASH_SetLatency) refers to py32f0xx_bsp_rcc.o(.text.LL_FLASH_SetLatency) for [Anonymous Symbol]
    py32f0xx_bsp_rcc.o(.ARM.exidx.text.LL_RCC_LSE_Disable) refers to py32f0xx_bsp_rcc.o(.text.LL_RCC_LSE_Disable) for [Anonymous Symbol]
    py32f0xx_bsp_rcc.o(.ARM.exidx.text.LL_RCC_HSE_Disable) refers to py32f0xx_bsp_rcc.o(.text.LL_RCC_HSE_Disable) for [Anonymous Symbol]
    py32f0xx_bsp_rcc.o(.ARM.exidx.text.LL_RCC_LSI_Disable) refers to py32f0xx_bsp_rcc.o(.text.LL_RCC_LSI_Disable) for [Anonymous Symbol]
    py32f0xx_bsp_tim.o(.text.BSP_TIM_config) refers to py32f0xx_bsp_tim.o(.text.LL_APB1_GRP2_EnableClock) for LL_APB1_GRP2_EnableClock
    py32f0xx_bsp_tim.o(.text.BSP_TIM_config) refers to py32f0xx_ll_tim.o(.text.LL_TIM_Init) for LL_TIM_Init
    py32f0xx_bsp_tim.o(.text.BSP_TIM_config) refers to py32f0xx_bsp_tim.o(.text.LL_TIM_EnableAllOutputs) for LL_TIM_EnableAllOutputs
    py32f0xx_bsp_tim.o(.text.BSP_TIM_config) refers to py32f0xx_bsp_tim.o(.text.LL_TIM_EnableCounter) for LL_TIM_EnableCounter
    py32f0xx_bsp_tim.o(.ARM.exidx.text.BSP_TIM_config) refers to py32f0xx_bsp_tim.o(.text.BSP_TIM_config) for [Anonymous Symbol]
    py32f0xx_bsp_tim.o(.ARM.exidx.text.LL_APB1_GRP2_EnableClock) refers to py32f0xx_bsp_tim.o(.text.LL_APB1_GRP2_EnableClock) for [Anonymous Symbol]
    py32f0xx_bsp_tim.o(.ARM.exidx.text.LL_TIM_EnableAllOutputs) refers to py32f0xx_bsp_tim.o(.text.LL_TIM_EnableAllOutputs) for [Anonymous Symbol]
    py32f0xx_bsp_tim.o(.ARM.exidx.text.LL_TIM_EnableCounter) refers to py32f0xx_bsp_tim.o(.text.LL_TIM_EnableCounter) for [Anonymous Symbol]
    py32f0xx_bsp_tim.o(.text.BSP_PWMChannelConfig) refers to py32f0xx_ll_gpio.o(.text.LL_GPIO_Init) for LL_GPIO_Init
    py32f0xx_bsp_tim.o(.text.BSP_PWMChannelConfig) refers to py32f0xx_ll_tim.o(.text.LL_TIM_OC_Init) for LL_TIM_OC_Init
    py32f0xx_bsp_tim.o(.ARM.exidx.text.BSP_PWMChannelConfig) refers to py32f0xx_bsp_tim.o(.text.BSP_PWMChannelConfig) for [Anonymous Symbol]
    py32f0xx_bsp_tim.o(.text.LED_PWM_Set) refers to py32f0xx_bsp_tim.o(.text.LL_TIM_OC_SetCompareCH1) for LL_TIM_OC_SetCompareCH1
    py32f0xx_bsp_tim.o(.ARM.exidx.text.LED_PWM_Set) refers to py32f0xx_bsp_tim.o(.text.LED_PWM_Set) for [Anonymous Symbol]
    py32f0xx_bsp_tim.o(.ARM.exidx.text.LL_TIM_OC_SetCompareCH1) refers to py32f0xx_bsp_tim.o(.text.LL_TIM_OC_SetCompareCH1) for [Anonymous Symbol]
    py32f0xx_bsp_usart.o(.text.BSP_USART_Config) refers to py32f0xx_bsp_usart.o(.text.LL_APB1_GRP2_EnableClock) for LL_APB1_GRP2_EnableClock
    py32f0xx_bsp_usart.o(.text.BSP_USART_Config) refers to py32f0xx_bsp_usart.o(.text.LL_USART_SetBaudRate) for LL_USART_SetBaudRate
    py32f0xx_bsp_usart.o(.text.BSP_USART_Config) refers to py32f0xx_bsp_usart.o(.text.LL_USART_SetDataWidth) for LL_USART_SetDataWidth
    py32f0xx_bsp_usart.o(.text.BSP_USART_Config) refers to py32f0xx_bsp_usart.o(.text.LL_USART_SetStopBitsLength) for LL_USART_SetStopBitsLength
    py32f0xx_bsp_usart.o(.text.BSP_USART_Config) refers to py32f0xx_bsp_usart.o(.text.LL_USART_SetParity) for LL_USART_SetParity
    py32f0xx_bsp_usart.o(.text.BSP_USART_Config) refers to py32f0xx_bsp_usart.o(.text.LL_USART_SetHWFlowCtrl) for LL_USART_SetHWFlowCtrl
    py32f0xx_bsp_usart.o(.text.BSP_USART_Config) refers to py32f0xx_bsp_usart.o(.text.LL_USART_SetTransferDirection) for LL_USART_SetTransferDirection
    py32f0xx_bsp_usart.o(.text.BSP_USART_Config) refers to py32f0xx_bsp_usart.o(.text.LL_USART_Enable) for LL_USART_Enable
    py32f0xx_bsp_usart.o(.text.BSP_USART_Config) refers to py32f0xx_bsp_usart.o(.text.LL_USART_ClearFlag_TC) for LL_USART_ClearFlag_TC
    py32f0xx_bsp_usart.o(.text.BSP_USART_Config) refers to py32f0xx_bsp_usart.o(.text.LL_IOP_GRP1_EnableClock) for LL_IOP_GRP1_EnableClock
    py32f0xx_bsp_usart.o(.text.BSP_USART_Config) refers to py32f0xx_bsp_usart.o(.text.LL_GPIO_SetPinMode) for LL_GPIO_SetPinMode
    py32f0xx_bsp_usart.o(.text.BSP_USART_Config) refers to py32f0xx_bsp_usart.o(.text.LL_GPIO_SetPinSpeed) for LL_GPIO_SetPinSpeed
    py32f0xx_bsp_usart.o(.text.BSP_USART_Config) refers to py32f0xx_bsp_usart.o(.text.LL_GPIO_SetPinPull) for LL_GPIO_SetPinPull
    py32f0xx_bsp_usart.o(.text.BSP_USART_Config) refers to py32f0xx_bsp_usart.o(.text.LL_GPIO_SetAFPin_0_7) for LL_GPIO_SetAFPin_0_7
    py32f0xx_bsp_usart.o(.text.BSP_USART_Config) refers to py32f0xx_bsp_usart.o(.text.LL_USART_EnableIT_PE) for LL_USART_EnableIT_PE
    py32f0xx_bsp_usart.o(.text.BSP_USART_Config) refers to py32f0xx_bsp_usart.o(.text.LL_USART_EnableIT_ERROR) for LL_USART_EnableIT_ERROR
    py32f0xx_bsp_usart.o(.text.BSP_USART_Config) refers to py32f0xx_bsp_usart.o(.text.LL_USART_EnableIT_RXNE) for LL_USART_EnableIT_RXNE
    py32f0xx_bsp_usart.o(.text.BSP_USART_Config) refers to py32f0xx_bsp_usart.o(.text.__NVIC_SetPriority) for __NVIC_SetPriority
    py32f0xx_bsp_usart.o(.text.BSP_USART_Config) refers to py32f0xx_bsp_usart.o(.text.__NVIC_EnableIRQ) for __NVIC_EnableIRQ
    py32f0xx_bsp_usart.o(.text.BSP_USART_Config) refers to system_py32f0xx.o(.data.SystemCoreClock) for SystemCoreClock
    py32f0xx_bsp_usart.o(.ARM.exidx.text.BSP_USART_Config) refers to py32f0xx_bsp_usart.o(.text.BSP_USART_Config) for [Anonymous Symbol]
    py32f0xx_bsp_usart.o(.ARM.exidx.text.LL_APB1_GRP2_EnableClock) refers to py32f0xx_bsp_usart.o(.text.LL_APB1_GRP2_EnableClock) for [Anonymous Symbol]
    py32f0xx_bsp_usart.o(.text.LL_USART_SetBaudRate) refers to uidiv_div0.o(.text) for __aeabi_uidiv
    py32f0xx_bsp_usart.o(.ARM.exidx.text.LL_USART_SetBaudRate) refers to py32f0xx_bsp_usart.o(.text.LL_USART_SetBaudRate) for [Anonymous Symbol]
    py32f0xx_bsp_usart.o(.ARM.exidx.text.LL_USART_SetDataWidth) refers to py32f0xx_bsp_usart.o(.text.LL_USART_SetDataWidth) for [Anonymous Symbol]
    py32f0xx_bsp_usart.o(.ARM.exidx.text.LL_USART_SetStopBitsLength) refers to py32f0xx_bsp_usart.o(.text.LL_USART_SetStopBitsLength) for [Anonymous Symbol]
    py32f0xx_bsp_usart.o(.ARM.exidx.text.LL_USART_SetParity) refers to py32f0xx_bsp_usart.o(.text.LL_USART_SetParity) for [Anonymous Symbol]
    py32f0xx_bsp_usart.o(.ARM.exidx.text.LL_USART_SetHWFlowCtrl) refers to py32f0xx_bsp_usart.o(.text.LL_USART_SetHWFlowCtrl) for [Anonymous Symbol]
    py32f0xx_bsp_usart.o(.ARM.exidx.text.LL_USART_SetTransferDirection) refers to py32f0xx_bsp_usart.o(.text.LL_USART_SetTransferDirection) for [Anonymous Symbol]
    py32f0xx_bsp_usart.o(.ARM.exidx.text.LL_USART_Enable) refers to py32f0xx_bsp_usart.o(.text.LL_USART_Enable) for [Anonymous Symbol]
    py32f0xx_bsp_usart.o(.ARM.exidx.text.LL_USART_ClearFlag_TC) refers to py32f0xx_bsp_usart.o(.text.LL_USART_ClearFlag_TC) for [Anonymous Symbol]
    py32f0xx_bsp_usart.o(.ARM.exidx.text.LL_IOP_GRP1_EnableClock) refers to py32f0xx_bsp_usart.o(.text.LL_IOP_GRP1_EnableClock) for [Anonymous Symbol]
    py32f0xx_bsp_usart.o(.ARM.exidx.text.LL_GPIO_SetPinMode) refers to py32f0xx_bsp_usart.o(.text.LL_GPIO_SetPinMode) for [Anonymous Symbol]
    py32f0xx_bsp_usart.o(.ARM.exidx.text.LL_GPIO_SetPinSpeed) refers to py32f0xx_bsp_usart.o(.text.LL_GPIO_SetPinSpeed) for [Anonymous Symbol]
    py32f0xx_bsp_usart.o(.ARM.exidx.text.LL_GPIO_SetPinPull) refers to py32f0xx_bsp_usart.o(.text.LL_GPIO_SetPinPull) for [Anonymous Symbol]
    py32f0xx_bsp_usart.o(.ARM.exidx.text.LL_GPIO_SetAFPin_0_7) refers to py32f0xx_bsp_usart.o(.text.LL_GPIO_SetAFPin_0_7) for [Anonymous Symbol]
    py32f0xx_bsp_usart.o(.ARM.exidx.text.LL_USART_EnableIT_PE) refers to py32f0xx_bsp_usart.o(.text.LL_USART_EnableIT_PE) for [Anonymous Symbol]
    py32f0xx_bsp_usart.o(.ARM.exidx.text.LL_USART_EnableIT_ERROR) refers to py32f0xx_bsp_usart.o(.text.LL_USART_EnableIT_ERROR) for [Anonymous Symbol]
    py32f0xx_bsp_usart.o(.ARM.exidx.text.LL_USART_EnableIT_RXNE) refers to py32f0xx_bsp_usart.o(.text.LL_USART_EnableIT_RXNE) for [Anonymous Symbol]
    py32f0xx_bsp_usart.o(.ARM.exidx.text.__NVIC_SetPriority) refers to py32f0xx_bsp_usart.o(.text.__NVIC_SetPriority) for [Anonymous Symbol]
    py32f0xx_bsp_usart.o(.ARM.exidx.text.__NVIC_EnableIRQ) refers to py32f0xx_bsp_usart.o(.text.__NVIC_EnableIRQ) for [Anonymous Symbol]
    py32f0xx_bsp_usart.o(.text.USART_bufsend) refers to py32f0xx_bsp_usart.o(.text.LL_USART_IsEnabledIT_TXE) for LL_USART_IsEnabledIT_TXE
    py32f0xx_bsp_usart.o(.text.USART_bufsend) refers to py32f0xx_bsp_usart.o(.text.LL_USART_TransmitData8) for LL_USART_TransmitData8
    py32f0xx_bsp_usart.o(.text.USART_bufsend) refers to py32f0xx_bsp_usart.o(.text.LL_USART_EnableIT_TXE) for LL_USART_EnableIT_TXE
    py32f0xx_bsp_usart.o(.text.USART_bufsend) refers to py32f0xx_bsp_usart.o(.data.tx_rd_index) for [Anonymous Symbol]
    py32f0xx_bsp_usart.o(.text.USART_bufsend) refers to py32f0xx_bsp_usart.o(.bss.tx_wr_index) for [Anonymous Symbol]
    py32f0xx_bsp_usart.o(.text.USART_bufsend) refers to py32f0xx_bsp_usart.o(.bss.USART_tx_buffer) for [Anonymous Symbol]
    py32f0xx_bsp_usart.o(.ARM.exidx.text.USART_bufsend) refers to py32f0xx_bsp_usart.o(.text.USART_bufsend) for [Anonymous Symbol]
    py32f0xx_bsp_usart.o(.ARM.exidx.text.LL_USART_IsEnabledIT_TXE) refers to py32f0xx_bsp_usart.o(.text.LL_USART_IsEnabledIT_TXE) for [Anonymous Symbol]
    py32f0xx_bsp_usart.o(.ARM.exidx.text.LL_USART_TransmitData8) refers to py32f0xx_bsp_usart.o(.text.LL_USART_TransmitData8) for [Anonymous Symbol]
    py32f0xx_bsp_usart.o(.ARM.exidx.text.LL_USART_EnableIT_TXE) refers to py32f0xx_bsp_usart.o(.text.LL_USART_EnableIT_TXE) for [Anonymous Symbol]
    py32f0xx_bsp_usart.o(.text.USART_send_a_byte) refers to py32f0xx_bsp_usart.o(.text.LL_USART_IsEnabledIT_TXE) for LL_USART_IsEnabledIT_TXE
    py32f0xx_bsp_usart.o(.text.USART_send_a_byte) refers to py32f0xx_bsp_usart.o(.text.LL_USART_TransmitData8) for LL_USART_TransmitData8
    py32f0xx_bsp_usart.o(.text.USART_send_a_byte) refers to py32f0xx_bsp_usart.o(.text.LL_USART_EnableIT_TXE) for LL_USART_EnableIT_TXE
    py32f0xx_bsp_usart.o(.text.USART_send_a_byte) refers to py32f0xx_bsp_usart.o(.bss.tx_wr_index) for [Anonymous Symbol]
    py32f0xx_bsp_usart.o(.text.USART_send_a_byte) refers to py32f0xx_bsp_usart.o(.data.tx_rd_index) for [Anonymous Symbol]
    py32f0xx_bsp_usart.o(.text.USART_send_a_byte) refers to py32f0xx_bsp_usart.o(.bss.USART_tx_buffer) for [Anonymous Symbol]
    py32f0xx_bsp_usart.o(.ARM.exidx.text.USART_send_a_byte) refers to py32f0xx_bsp_usart.o(.text.USART_send_a_byte) for [Anonymous Symbol]
    py32f0xx_bsp_usart.o(.text.USART_getvalidnum) refers to py32f0xx_bsp_usart.o(.data.rx_rd_index) for [Anonymous Symbol]
    py32f0xx_bsp_usart.o(.text.USART_getvalidnum) refers to py32f0xx_bsp_usart.o(.bss.rx_wr_index) for [Anonymous Symbol]
    py32f0xx_bsp_usart.o(.ARM.exidx.text.USART_getvalidnum) refers to py32f0xx_bsp_usart.o(.text.USART_getvalidnum) for [Anonymous Symbol]
    py32f0xx_bsp_usart.o(.text.USART_read_a_byte) refers to py32f0xx_bsp_usart.o(.data.rx_rd_index) for [Anonymous Symbol]
    py32f0xx_bsp_usart.o(.text.USART_read_a_byte) refers to py32f0xx_bsp_usart.o(.bss.rx_wr_index) for [Anonymous Symbol]
    py32f0xx_bsp_usart.o(.text.USART_read_a_byte) refers to py32f0xx_bsp_usart.o(.bss.USART_rx_buffer) for [Anonymous Symbol]
    py32f0xx_bsp_usart.o(.ARM.exidx.text.USART_read_a_byte) refers to py32f0xx_bsp_usart.o(.text.USART_read_a_byte) for [Anonymous Symbol]
    py32f0xx_bsp_usart.o(.text.USART_bufread) refers to py32f0xx_bsp_usart.o(.bss.rx_wr_index) for [Anonymous Symbol]
    py32f0xx_bsp_usart.o(.text.USART_bufread) refers to py32f0xx_bsp_usart.o(.data.rx_rd_index) for [Anonymous Symbol]
    py32f0xx_bsp_usart.o(.text.USART_bufread) refers to py32f0xx_bsp_usart.o(.bss.USART_rx_buffer) for [Anonymous Symbol]
    py32f0xx_bsp_usart.o(.ARM.exidx.text.USART_bufread) refers to py32f0xx_bsp_usart.o(.text.USART_bufread) for [Anonymous Symbol]
    py32f0xx_bsp_usart.o(.text.USART1_IRQHandler) refers to py32f0xx_bsp_usart.o(.text.LL_USART_IsActiveFlag_TXE) for LL_USART_IsActiveFlag_TXE
    py32f0xx_bsp_usart.o(.text.USART1_IRQHandler) refers to py32f0xx_bsp_usart.o(.text.LL_USART_DisableIT_TXE) for LL_USART_DisableIT_TXE
    py32f0xx_bsp_usart.o(.text.USART1_IRQHandler) refers to py32f0xx_bsp_usart.o(.text.LL_USART_TransmitData8) for LL_USART_TransmitData8
    py32f0xx_bsp_usart.o(.text.USART1_IRQHandler) refers to py32f0xx_bsp_usart.o(.text.LL_USART_IsActiveFlag_RXNE) for LL_USART_IsActiveFlag_RXNE
    py32f0xx_bsp_usart.o(.text.USART1_IRQHandler) refers to py32f0xx_bsp_usart.o(.text.LL_USART_ReceiveData8) for LL_USART_ReceiveData8
    py32f0xx_bsp_usart.o(.text.USART1_IRQHandler) refers to py32f0xx_bsp_usart.o(.text.LL_USART_IsActiveFlag_PE) for LL_USART_IsActiveFlag_PE
    py32f0xx_bsp_usart.o(.text.USART1_IRQHandler) refers to py32f0xx_bsp_usart.o(.text.LL_USART_ClearFlag_PE) for LL_USART_ClearFlag_PE
    py32f0xx_bsp_usart.o(.text.USART1_IRQHandler) refers to py32f0xx_bsp_usart.o(.text.LL_USART_IsActiveFlag_FE) for LL_USART_IsActiveFlag_FE
    py32f0xx_bsp_usart.o(.text.USART1_IRQHandler) refers to py32f0xx_bsp_usart.o(.text.LL_USART_ClearFlag_FE) for LL_USART_ClearFlag_FE
    py32f0xx_bsp_usart.o(.text.USART1_IRQHandler) refers to py32f0xx_bsp_usart.o(.text.LL_USART_IsActiveFlag_ORE) for LL_USART_IsActiveFlag_ORE
    py32f0xx_bsp_usart.o(.text.USART1_IRQHandler) refers to py32f0xx_bsp_usart.o(.text.LL_USART_ClearFlag_ORE) for LL_USART_ClearFlag_ORE
    py32f0xx_bsp_usart.o(.text.USART1_IRQHandler) refers to py32f0xx_bsp_usart.o(.text.LL_USART_IsActiveFlag_NE) for LL_USART_IsActiveFlag_NE
    py32f0xx_bsp_usart.o(.text.USART1_IRQHandler) refers to py32f0xx_bsp_usart.o(.text.LL_USART_ClearFlag_NE) for LL_USART_ClearFlag_NE
    py32f0xx_bsp_usart.o(.text.USART1_IRQHandler) refers to py32f0xx_bsp_usart.o(.data.tx_rd_index) for [Anonymous Symbol]
    py32f0xx_bsp_usart.o(.text.USART1_IRQHandler) refers to py32f0xx_bsp_usart.o(.bss.tx_wr_index) for [Anonymous Symbol]
    py32f0xx_bsp_usart.o(.text.USART1_IRQHandler) refers to py32f0xx_bsp_usart.o(.bss.USART_tx_buffer) for [Anonymous Symbol]
    py32f0xx_bsp_usart.o(.text.USART1_IRQHandler) refers to py32f0xx_bsp_usart.o(.bss.rx_wr_index) for [Anonymous Symbol]
    py32f0xx_bsp_usart.o(.text.USART1_IRQHandler) refers to py32f0xx_bsp_usart.o(.data.rx_rd_index) for [Anonymous Symbol]
    py32f0xx_bsp_usart.o(.text.USART1_IRQHandler) refers to py32f0xx_bsp_usart.o(.bss.USART_rx_buffer) for [Anonymous Symbol]
    py32f0xx_bsp_usart.o(.text.USART1_IRQHandler) refers to py32f0xx_bsp_usart.o(.bss.rx_buf_ovf) for rx_buf_ovf
    py32f0xx_bsp_usart.o(.ARM.exidx.text.USART1_IRQHandler) refers to py32f0xx_bsp_usart.o(.text.USART1_IRQHandler) for [Anonymous Symbol]
    py32f0xx_bsp_usart.o(.ARM.exidx.text.LL_USART_IsActiveFlag_TXE) refers to py32f0xx_bsp_usart.o(.text.LL_USART_IsActiveFlag_TXE) for [Anonymous Symbol]
    py32f0xx_bsp_usart.o(.ARM.exidx.text.LL_USART_DisableIT_TXE) refers to py32f0xx_bsp_usart.o(.text.LL_USART_DisableIT_TXE) for [Anonymous Symbol]
    py32f0xx_bsp_usart.o(.ARM.exidx.text.LL_USART_IsActiveFlag_RXNE) refers to py32f0xx_bsp_usart.o(.text.LL_USART_IsActiveFlag_RXNE) for [Anonymous Symbol]
    py32f0xx_bsp_usart.o(.ARM.exidx.text.LL_USART_ReceiveData8) refers to py32f0xx_bsp_usart.o(.text.LL_USART_ReceiveData8) for [Anonymous Symbol]
    py32f0xx_bsp_usart.o(.ARM.exidx.text.LL_USART_IsActiveFlag_PE) refers to py32f0xx_bsp_usart.o(.text.LL_USART_IsActiveFlag_PE) for [Anonymous Symbol]
    py32f0xx_bsp_usart.o(.ARM.exidx.text.LL_USART_ClearFlag_PE) refers to py32f0xx_bsp_usart.o(.text.LL_USART_ClearFlag_PE) for [Anonymous Symbol]
    py32f0xx_bsp_usart.o(.ARM.exidx.text.LL_USART_IsActiveFlag_FE) refers to py32f0xx_bsp_usart.o(.text.LL_USART_IsActiveFlag_FE) for [Anonymous Symbol]
    py32f0xx_bsp_usart.o(.ARM.exidx.text.LL_USART_ClearFlag_FE) refers to py32f0xx_bsp_usart.o(.text.LL_USART_ClearFlag_FE) for [Anonymous Symbol]
    py32f0xx_bsp_usart.o(.ARM.exidx.text.LL_USART_IsActiveFlag_ORE) refers to py32f0xx_bsp_usart.o(.text.LL_USART_IsActiveFlag_ORE) for [Anonymous Symbol]
    py32f0xx_bsp_usart.o(.ARM.exidx.text.LL_USART_ClearFlag_ORE) refers to py32f0xx_bsp_usart.o(.text.LL_USART_ClearFlag_ORE) for [Anonymous Symbol]
    py32f0xx_bsp_usart.o(.ARM.exidx.text.LL_USART_IsActiveFlag_NE) refers to py32f0xx_bsp_usart.o(.text.LL_USART_IsActiveFlag_NE) for [Anonymous Symbol]
    py32f0xx_bsp_usart.o(.ARM.exidx.text.LL_USART_ClearFlag_NE) refers to py32f0xx_bsp_usart.o(.text.LL_USART_ClearFlag_NE) for [Anonymous Symbol]
    py32f0xx_bsp_usart.o(.text.BSP_UART_TxChar) refers to py32f0xx_bsp_usart.o(.text.LL_USART_TransmitData8) for LL_USART_TransmitData8
    py32f0xx_bsp_usart.o(.text.BSP_UART_TxChar) refers to py32f0xx_bsp_usart.o(.text.LL_USART_IsActiveFlag_TC) for LL_USART_IsActiveFlag_TC
    py32f0xx_bsp_usart.o(.text.BSP_UART_TxChar) refers to py32f0xx_bsp_usart.o(.text.LL_USART_ClearFlag_TC) for LL_USART_ClearFlag_TC
    py32f0xx_bsp_usart.o(.ARM.exidx.text.BSP_UART_TxChar) refers to py32f0xx_bsp_usart.o(.text.BSP_UART_TxChar) for [Anonymous Symbol]
    py32f0xx_bsp_usart.o(.ARM.exidx.text.LL_USART_IsActiveFlag_TC) refers to py32f0xx_bsp_usart.o(.text.LL_USART_IsActiveFlag_TC) for [Anonymous Symbol]
    py32f0xx_bsp_usart.o(.text.BSP_UART_TxHex8) refers to py32f0xx_bsp_usart.o(.text.BSP_UART_TxChar) for BSP_UART_TxChar
    py32f0xx_bsp_usart.o(.text.BSP_UART_TxHex8) refers to py32f0xx_bsp_usart.o(.rodata.HEX_TABLE) for HEX_TABLE
    py32f0xx_bsp_usart.o(.ARM.exidx.text.BSP_UART_TxHex8) refers to py32f0xx_bsp_usart.o(.text.BSP_UART_TxHex8) for [Anonymous Symbol]
    py32f0xx_bsp_usart.o(.text.BSP_UART_TxHex16) refers to py32f0xx_bsp_usart.o(.text.BSP_UART_TxChar) for BSP_UART_TxChar
    py32f0xx_bsp_usart.o(.text.BSP_UART_TxHex16) refers to py32f0xx_bsp_usart.o(.rodata.HEX_TABLE) for HEX_TABLE
    py32f0xx_bsp_usart.o(.ARM.exidx.text.BSP_UART_TxHex16) refers to py32f0xx_bsp_usart.o(.text.BSP_UART_TxHex16) for [Anonymous Symbol]
    py32f0xx_bsp_usart.o(.text.BSP_UART_TxHex32) refers to py32f0xx_bsp_usart.o(.text.BSP_UART_TxChar) for BSP_UART_TxChar
    py32f0xx_bsp_usart.o(.text.BSP_UART_TxHex32) refers to py32f0xx_bsp_usart.o(.rodata.HEX_TABLE) for HEX_TABLE
    py32f0xx_bsp_usart.o(.ARM.exidx.text.BSP_UART_TxHex32) refers to py32f0xx_bsp_usart.o(.text.BSP_UART_TxHex32) for [Anonymous Symbol]
    py32f0xx_bsp_usart.o(.text.uprintf) refers to printfa.o(i.__0vsprintf) for vsprintf
    py32f0xx_bsp_usart.o(.text.uprintf) refers to py32f0xx_bsp_usart.o(.text.USART_bufsend) for USART_bufsend
    py32f0xx_bsp_usart.o(.ARM.exidx.text.uprintf) refers to py32f0xx_bsp_usart.o(.text.uprintf) for [Anonymous Symbol]
    sw6306.o(.text.SW6306_ByteWrite) refers to py32f0xx_bsp_i2c.o(.text.ASYNC_I2C_Transmit) for ASYNC_I2C_Transmit
    sw6306.o(.text.SW6306_ByteWrite) refers to sw6306.o(.bss.SW6306_Status) for [Anonymous Symbol]
    sw6306.o(.ARM.exidx.text.SW6306_ByteWrite) refers to sw6306.o(.text.SW6306_ByteWrite) for [Anonymous Symbol]
    sw6306.o(.text.SW6306_ByteRead) refers to py32f0xx_bsp_i2c.o(.text.ASYNC_I2C_Receive) for ASYNC_I2C_Receive
    sw6306.o(.text.SW6306_ByteRead) refers to sw6306.o(.bss.SW6306_ByteRead.swrd_steps) for [Anonymous Symbol]
    sw6306.o(.text.SW6306_ByteRead) refers to sw6306.o(.bss.SW6306_Status) for [Anonymous Symbol]
    sw6306.o(.ARM.exidx.text.SW6306_ByteRead) refers to sw6306.o(.text.SW6306_ByteRead) for [Anonymous Symbol]
    sw6306.o(.text.SW6306_RegsetSwitch) refers to sw6306.o(.text.SW6306_ByteRead) for SW6306_ByteRead
    sw6306.o(.text.SW6306_RegsetSwitch) refers to sw6306.o(.text.SW6306_ByteWrite) for SW6306_ByteWrite
    sw6306.o(.text.SW6306_RegsetSwitch) refers to sw6306.o(.bss.SW6306_RegsetSwitch.steps) for [Anonymous Symbol]
    sw6306.o(.text.SW6306_RegsetSwitch) refers to sw6306.o(.bss.SW6306_Status) for [Anonymous Symbol]
    sw6306.o(.ARM.exidx.text.SW6306_RegsetSwitch) refers to sw6306.o(.text.SW6306_RegsetSwitch) for [Anonymous Symbol]
    sw6306.o(.text.SW6306_ByteModify) refers to sw6306.o(.text.SW6306_ByteRead) for SW6306_ByteRead
    sw6306.o(.text.SW6306_ByteModify) refers to sw6306.o(.text.SW6306_ByteWrite) for SW6306_ByteWrite
    sw6306.o(.text.SW6306_ByteModify) refers to sw6306.o(.bss.SW6306_ByteModify.swmd_steps) for [Anonymous Symbol]
    sw6306.o(.text.SW6306_ByteModify) refers to sw6306.o(.bss.SW6306_Status) for [Anonymous Symbol]
    sw6306.o(.ARM.exidx.text.SW6306_ByteModify) refers to sw6306.o(.text.SW6306_ByteModify) for [Anonymous Symbol]
    sw6306.o(.text.SW6306_ADCRead) refers to sw6306.o(.text.SW6306_ByteWrite) for SW6306_ByteWrite
    sw6306.o(.text.SW6306_ADCRead) refers to py32f0xx_bsp_i2c.o(.text.ASYNC_I2C_Receive) for ASYNC_I2C_Receive
    sw6306.o(.text.SW6306_ADCRead) refers to sw6306.o(.bss.SW6306_ADCRead.sw_steps) for [Anonymous Symbol]
    sw6306.o(.text.SW6306_ADCRead) refers to sw6306.o(.bss.SW6306_Status) for [Anonymous Symbol]
    sw6306.o(.ARM.exidx.text.SW6306_ADCRead) refers to sw6306.o(.text.SW6306_ADCRead) for [Anonymous Symbol]
    sw6306.o(.text.SW6306_ADCLoad) refers to sw6306.o(.text.SW6306_RegsetSwitch) for SW6306_RegsetSwitch
    sw6306.o(.text.SW6306_ADCLoad) refers to sw6306.o(.text.SW6306_ADCRead) for SW6306_ADCRead
    sw6306.o(.text.SW6306_ADCLoad) refers to sw6306.o(.text.SW6306_Init) for SW6306_Init
    sw6306.o(.text.SW6306_ADCLoad) refers to sw6306.o(.bss.SW6306_ADCLoad.swld_steps) for [Anonymous Symbol]
    sw6306.o(.text.SW6306_ADCLoad) refers to sw6306.o(.bss.SW6306_Status) for [Anonymous Symbol]
    sw6306.o(.ARM.exidx.text.SW6306_ADCLoad) refers to sw6306.o(.text.SW6306_ADCLoad) for [Anonymous Symbol]
    sw6306.o(.text.SW6306_Init) refers to sw6306.o(.text.SW6306_RegsetSwitch) for SW6306_RegsetSwitch
    sw6306.o(.text.SW6306_Init) refers to sw6306.o(.text.SW6306_ByteWrite) for SW6306_ByteWrite
    sw6306.o(.text.SW6306_Init) refers to sw6306.o(.text.SW6306_Unlock) for SW6306_Unlock
    sw6306.o(.text.SW6306_Init) refers to sw6306.o(.text.SW6306_ByteModify) for SW6306_ByteModify
    sw6306.o(.text.SW6306_Init) refers to sw6306.o(.bss.SW6306_Init.steps) for [Anonymous Symbol]
    sw6306.o(.text.SW6306_Init) refers to sw6306.o(.bss.SW6306_Status) for [Anonymous Symbol]
    sw6306.o(.ARM.exidx.text.SW6306_Init) refers to sw6306.o(.text.SW6306_Init) for [Anonymous Symbol]
    sw6306.o(.text.SW6306_ReadVBUS) refers to sw6306.o(.bss.SW6306_Status) for [Anonymous Symbol]
    sw6306.o(.ARM.exidx.text.SW6306_ReadVBUS) refers to sw6306.o(.text.SW6306_ReadVBUS) for [Anonymous Symbol]
    sw6306.o(.text.SW6306_ReadIBUS) refers to sw6306.o(.bss.SW6306_Status) for [Anonymous Symbol]
    sw6306.o(.ARM.exidx.text.SW6306_ReadIBUS) refers to sw6306.o(.text.SW6306_ReadIBUS) for [Anonymous Symbol]
    sw6306.o(.text.SW6306_ReadVBAT) refers to sw6306.o(.bss.SW6306_Status) for [Anonymous Symbol]
    sw6306.o(.ARM.exidx.text.SW6306_ReadVBAT) refers to sw6306.o(.text.SW6306_ReadVBAT) for [Anonymous Symbol]
    sw6306.o(.text.SW6306_ReadIBAT) refers to sw6306.o(.bss.SW6306_Status) for [Anonymous Symbol]
    sw6306.o(.ARM.exidx.text.SW6306_ReadIBAT) refers to sw6306.o(.text.SW6306_ReadIBAT) for [Anonymous Symbol]
    sw6306.o(.text.SW6306_ReadTNTC) refers to sw6306.o(.bss.SW6306_Status) for [Anonymous Symbol]
    sw6306.o(.ARM.exidx.text.SW6306_ReadTNTC) refers to sw6306.o(.text.SW6306_ReadTNTC) for [Anonymous Symbol]
    sw6306.o(.text.SW6306_ReadTCHIP) refers to fflti.o(.text) for __aeabi_i2f
    sw6306.o(.text.SW6306_ReadTCHIP) refers to f2d.o(.text) for __aeabi_f2d
    sw6306.o(.text.SW6306_ReadTCHIP) refers to ddiv.o(.text) for __aeabi_ddiv
    sw6306.o(.text.SW6306_ReadTCHIP) refers to d2f.o(.text) for __aeabi_d2f
    sw6306.o(.text.SW6306_ReadTCHIP) refers to sw6306.o(.bss.SW6306_Status) for [Anonymous Symbol]
    sw6306.o(.ARM.exidx.text.SW6306_ReadTCHIP) refers to sw6306.o(.text.SW6306_ReadTCHIP) for [Anonymous Symbol]
    sw6306.o(.text.SW6306_ReadVNTC) refers to dfltui.o(.text) for __aeabi_ui2d
    sw6306.o(.text.SW6306_ReadVNTC) refers to dmul.o(.text) for __aeabi_dmul
    sw6306.o(.text.SW6306_ReadVNTC) refers to d2f.o(.text) for __aeabi_d2f
    sw6306.o(.text.SW6306_ReadVNTC) refers to sw6306.o(.bss.SW6306_Status) for [Anonymous Symbol]
    sw6306.o(.ARM.exidx.text.SW6306_ReadVNTC) refers to sw6306.o(.text.SW6306_ReadVNTC) for [Anonymous Symbol]
    sw6306.o(.text.SW6306_PortStatusLoad) refers to sw6306.o(.text.SW6306_RegsetSwitch) for SW6306_RegsetSwitch
    sw6306.o(.text.SW6306_PortStatusLoad) refers to sw6306.o(.text.SW6306_ByteRead) for SW6306_ByteRead
    sw6306.o(.text.SW6306_PortStatusLoad) refers to sw6306.o(.bss.SW6306_PortStatusLoad.steps) for [Anonymous Symbol]
    sw6306.o(.text.SW6306_PortStatusLoad) refers to sw6306.o(.bss.SW6306_Status) for [Anonymous Symbol]
    sw6306.o(.ARM.exidx.text.SW6306_PortStatusLoad) refers to sw6306.o(.text.SW6306_PortStatusLoad) for [Anonymous Symbol]
    sw6306.o(.text.SW6306_IsPortC1ON) refers to sw6306.o(.bss.SW6306_Status) for [Anonymous Symbol]
    sw6306.o(.ARM.exidx.text.SW6306_IsPortC1ON) refers to sw6306.o(.text.SW6306_IsPortC1ON) for [Anonymous Symbol]
    sw6306.o(.text.SW6306_IsPortC2ON) refers to sw6306.o(.bss.SW6306_Status) for [Anonymous Symbol]
    sw6306.o(.ARM.exidx.text.SW6306_IsPortC2ON) refers to sw6306.o(.text.SW6306_IsPortC2ON) for [Anonymous Symbol]
    sw6306.o(.text.SW6306_IsPortA1ON) refers to sw6306.o(.bss.SW6306_Status) for [Anonymous Symbol]
    sw6306.o(.ARM.exidx.text.SW6306_IsPortA1ON) refers to sw6306.o(.text.SW6306_IsPortA1ON) for [Anonymous Symbol]
    sw6306.o(.text.SW6306_IsPortA2ON) refers to sw6306.o(.bss.SW6306_Status) for [Anonymous Symbol]
    sw6306.o(.ARM.exidx.text.SW6306_IsPortA2ON) refers to sw6306.o(.text.SW6306_IsPortA2ON) for [Anonymous Symbol]
    sw6306.o(.text.SW6306_PowerLoad) refers to sw6306.o(.text.SW6306_RegsetSwitch) for SW6306_RegsetSwitch
    sw6306.o(.text.SW6306_PowerLoad) refers to sw6306.o(.text.SW6306_ByteRead) for SW6306_ByteRead
    sw6306.o(.text.SW6306_PowerLoad) refers to sw6306.o(.bss.SW6306_PowerLoad.steps) for [Anonymous Symbol]
    sw6306.o(.text.SW6306_PowerLoad) refers to sw6306.o(.bss.SW6306_Status) for [Anonymous Symbol]
    sw6306.o(.ARM.exidx.text.SW6306_PowerLoad) refers to sw6306.o(.text.SW6306_PowerLoad) for [Anonymous Symbol]
    sw6306.o(.text.SW6306_ReadIPortLimit) refers to sw6306.o(.bss.SW6306_Status) for [Anonymous Symbol]
    sw6306.o(.ARM.exidx.text.SW6306_ReadIPortLimit) refers to sw6306.o(.text.SW6306_ReadIPortLimit) for [Anonymous Symbol]
    sw6306.o(.text.SW6306_ReadIBattLimit) refers to sw6306.o(.bss.SW6306_Status) for [Anonymous Symbol]
    sw6306.o(.ARM.exidx.text.SW6306_ReadIBattLimit) refers to sw6306.o(.text.SW6306_ReadIBattLimit) for [Anonymous Symbol]
    sw6306.o(.text.SW6306_ReadMaxOutputPower) refers to sw6306.o(.bss.SW6306_Status) for [Anonymous Symbol]
    sw6306.o(.ARM.exidx.text.SW6306_ReadMaxOutputPower) refers to sw6306.o(.text.SW6306_ReadMaxOutputPower) for [Anonymous Symbol]
    sw6306.o(.text.SW6306_ReadMaxInputPower) refers to sw6306.o(.bss.SW6306_Status) for [Anonymous Symbol]
    sw6306.o(.ARM.exidx.text.SW6306_ReadMaxInputPower) refers to sw6306.o(.text.SW6306_ReadMaxInputPower) for [Anonymous Symbol]
    sw6306.o(.text.SW6306_StatusLoad) refers to sw6306.o(.text.SW6306_RegsetSwitch) for SW6306_RegsetSwitch
    sw6306.o(.text.SW6306_StatusLoad) refers to sw6306.o(.text.SW6306_ByteRead) for SW6306_ByteRead
    sw6306.o(.text.SW6306_StatusLoad) refers to sw6306.o(.bss.SW6306_StatusLoad.steps) for [Anonymous Symbol]
    sw6306.o(.text.SW6306_StatusLoad) refers to sw6306.o(.bss.SW6306_Status) for [Anonymous Symbol]
    sw6306.o(.ARM.exidx.text.SW6306_StatusLoad) refers to sw6306.o(.text.SW6306_StatusLoad) for [Anonymous Symbol]
    sw6306.o(.text.SW6306_IsLowCurrentMode) refers to sw6306.o(.bss.SW6306_Status) for [Anonymous Symbol]
    sw6306.o(.ARM.exidx.text.SW6306_IsLowCurrentMode) refers to sw6306.o(.text.SW6306_IsLowCurrentMode) for [Anonymous Symbol]
    sw6306.o(.text.SW6306_IsMPPTCharging) refers to sw6306.o(.bss.SW6306_Status) for [Anonymous Symbol]
    sw6306.o(.ARM.exidx.text.SW6306_IsMPPTCharging) refers to sw6306.o(.text.SW6306_IsMPPTCharging) for [Anonymous Symbol]
    sw6306.o(.text.SW6306_IsCharging) refers to sw6306.o(.bss.SW6306_Status) for [Anonymous Symbol]
    sw6306.o(.ARM.exidx.text.SW6306_IsCharging) refers to sw6306.o(.text.SW6306_IsCharging) for [Anonymous Symbol]
    sw6306.o(.text.SW6306_IsDischarging) refers to sw6306.o(.bss.SW6306_Status) for [Anonymous Symbol]
    sw6306.o(.ARM.exidx.text.SW6306_IsDischarging) refers to sw6306.o(.text.SW6306_IsDischarging) for [Anonymous Symbol]
    sw6306.o(.text.SW6306_IsFullCharged) refers to sw6306.o(.bss.SW6306_Status) for [Anonymous Symbol]
    sw6306.o(.ARM.exidx.text.SW6306_IsFullCharged) refers to sw6306.o(.text.SW6306_IsFullCharged) for [Anonymous Symbol]
    sw6306.o(.text.SW6306_IsBatteryDepleted) refers to sw6306.o(.bss.SW6306_Status) for [Anonymous Symbol]
    sw6306.o(.ARM.exidx.text.SW6306_IsBatteryDepleted) refers to sw6306.o(.text.SW6306_IsBatteryDepleted) for [Anonymous Symbol]
    sw6306.o(.text.SW6306_IsCapacityLearned) refers to sw6306.o(.bss.SW6306_Status) for [Anonymous Symbol]
    sw6306.o(.ARM.exidx.text.SW6306_IsCapacityLearned) refers to sw6306.o(.text.SW6306_IsCapacityLearned) for [Anonymous Symbol]
    sw6306.o(.text.SW6306_IsErrorinCharging) refers to sw6306.o(.bss.SW6306_Status) for [Anonymous Symbol]
    sw6306.o(.ARM.exidx.text.SW6306_IsErrorinCharging) refers to sw6306.o(.text.SW6306_IsErrorinCharging) for [Anonymous Symbol]
    sw6306.o(.text.SW6306_IsErrorinDischarging) refers to sw6306.o(.bss.SW6306_Status) for [Anonymous Symbol]
    sw6306.o(.ARM.exidx.text.SW6306_IsErrorinDischarging) refers to sw6306.o(.text.SW6306_IsErrorinDischarging) for [Anonymous Symbol]
    sw6306.o(.text.SW6306_IsKeyEvent) refers to sw6306.o(.bss.SW6306_Status) for [Anonymous Symbol]
    sw6306.o(.ARM.exidx.text.SW6306_IsKeyEvent) refers to sw6306.o(.text.SW6306_IsKeyEvent) for [Anonymous Symbol]
    sw6306.o(.text.SW6306_IsSceneChanged) refers to sw6306.o(.bss.SW6306_Status) for [Anonymous Symbol]
    sw6306.o(.ARM.exidx.text.SW6306_IsSceneChanged) refers to sw6306.o(.text.SW6306_IsSceneChanged) for [Anonymous Symbol]
    sw6306.o(.text.SW6306_IsOverHeated) refers to sw6306.o(.bss.SW6306_Status) for [Anonymous Symbol]
    sw6306.o(.ARM.exidx.text.SW6306_IsOverHeated) refers to sw6306.o(.text.SW6306_IsOverHeated) for [Anonymous Symbol]
    sw6306.o(.text.SW6306_TNTC_Calc) refers to dfltui.o(.text) for __aeabi_ui2d
    sw6306.o(.text.SW6306_TNTC_Calc) refers to dmul.o(.text) for __aeabi_dmul
    sw6306.o(.text.SW6306_TNTC_Calc) refers to ddiv.o(.text) for __aeabi_ddiv
    sw6306.o(.text.SW6306_TNTC_Calc) refers to d2f.o(.text) for __aeabi_d2f
    sw6306.o(.text.SW6306_TNTC_Calc) refers to sw6306.o(.bss.SW6306_Status) for [Anonymous Symbol]
    sw6306.o(.ARM.exidx.text.SW6306_TNTC_Calc) refers to sw6306.o(.text.SW6306_TNTC_Calc) for [Anonymous Symbol]
    sw6306.o(.text.SW6306_CapacityLoad) refers to sw6306.o(.text.SW6306_RegsetSwitch) for SW6306_RegsetSwitch
    sw6306.o(.text.SW6306_CapacityLoad) refers to sw6306.o(.text.SW6306_ByteRead) for SW6306_ByteRead
    sw6306.o(.text.SW6306_CapacityLoad) refers to py32f0xx_bsp_i2c.o(.text.ASYNC_I2C_Receive) for ASYNC_I2C_Receive
    sw6306.o(.text.SW6306_CapacityLoad) refers to sw6306.o(.bss.SW6306_CapacityLoad.steps) for [Anonymous Symbol]
    sw6306.o(.text.SW6306_CapacityLoad) refers to sw6306.o(.bss.SW6306_Status) for [Anonymous Symbol]
    sw6306.o(.ARM.exidx.text.SW6306_CapacityLoad) refers to sw6306.o(.text.SW6306_CapacityLoad) for [Anonymous Symbol]
    sw6306.o(.text.SW6306_ReadCapacity) refers to sw6306.o(.bss.SW6306_Status) for [Anonymous Symbol]
    sw6306.o(.ARM.exidx.text.SW6306_ReadCapacity) refers to sw6306.o(.text.SW6306_ReadCapacity) for [Anonymous Symbol]
    sw6306.o(.text.SW6306_ReadMaxGuageCap) refers to dfltui.o(.text) for __aeabi_ui2d
    sw6306.o(.text.SW6306_ReadMaxGuageCap) refers to dmul.o(.text) for __aeabi_dmul
    sw6306.o(.text.SW6306_ReadMaxGuageCap) refers to d2f.o(.text) for __aeabi_d2f
    sw6306.o(.text.SW6306_ReadMaxGuageCap) refers to sw6306.o(.bss.SW6306_Status) for [Anonymous Symbol]
    sw6306.o(.ARM.exidx.text.SW6306_ReadMaxGuageCap) refers to sw6306.o(.text.SW6306_ReadMaxGuageCap) for [Anonymous Symbol]
    sw6306.o(.text.SW6306_ReadPresentGuageCap) refers to dfltui.o(.text) for __aeabi_ui2d
    sw6306.o(.text.SW6306_ReadPresentGuageCap) refers to dmul.o(.text) for __aeabi_dmul
    sw6306.o(.text.SW6306_ReadPresentGuageCap) refers to d2f.o(.text) for __aeabi_d2f
    sw6306.o(.text.SW6306_ReadPresentGuageCap) refers to sw6306.o(.bss.SW6306_Status) for [Anonymous Symbol]
    sw6306.o(.ARM.exidx.text.SW6306_ReadPresentGuageCap) refers to sw6306.o(.text.SW6306_ReadPresentGuageCap) for [Anonymous Symbol]
    sw6306.o(.text.SW6306_Click) refers to sw6306.o(.text.SW6306_RegsetSwitch) for SW6306_RegsetSwitch
    sw6306.o(.text.SW6306_Click) refers to sw6306.o(.text.SW6306_ByteWrite) for SW6306_ByteWrite
    sw6306.o(.text.SW6306_Click) refers to sw6306.o(.bss.SW6306_Click.steps) for [Anonymous Symbol]
    sw6306.o(.ARM.exidx.text.SW6306_Click) refers to sw6306.o(.text.SW6306_Click) for [Anonymous Symbol]
    sw6306.o(.text.SW6306_ForceOff) refers to sw6306.o(.text.SW6306_RegsetSwitch) for SW6306_RegsetSwitch
    sw6306.o(.text.SW6306_ForceOff) refers to sw6306.o(.text.SW6306_ByteWrite) for SW6306_ByteWrite
    sw6306.o(.text.SW6306_ForceOff) refers to sw6306.o(.bss.SW6306_ForceOff.steps) for [Anonymous Symbol]
    sw6306.o(.ARM.exidx.text.SW6306_ForceOff) refers to sw6306.o(.text.SW6306_ForceOff) for [Anonymous Symbol]
    sw6306.o(.text.SW6306_Unlock) refers to sw6306.o(.text.SW6306_RegsetSwitch) for SW6306_RegsetSwitch
    sw6306.o(.text.SW6306_Unlock) refers to sw6306.o(.text.SW6306_ByteWrite) for SW6306_ByteWrite
    sw6306.o(.text.SW6306_Unlock) refers to sw6306.o(.bss.SW6306_Unlock.steps) for [Anonymous Symbol]
    sw6306.o(.ARM.exidx.text.SW6306_Unlock) refers to sw6306.o(.text.SW6306_Unlock) for [Anonymous Symbol]
    sw6306.o(.text.SW6306_LPSet) refers to sw6306.o(.text.SW6306_RegsetSwitch) for SW6306_RegsetSwitch
    sw6306.o(.text.SW6306_LPSet) refers to sw6306.o(.text.SW6306_ByteModify) for SW6306_ByteModify
    sw6306.o(.text.SW6306_LPSet) refers to sw6306.o(.bss.SW6306_LPSet.steps) for [Anonymous Symbol]
    sw6306.o(.ARM.exidx.text.SW6306_LPSet) refers to sw6306.o(.text.SW6306_LPSet) for [Anonymous Symbol]
    sw6306.o(.text.SW6306_WLEDSet) refers to sw6306.o(.text.SW6306_RegsetSwitch) for SW6306_RegsetSwitch
    sw6306.o(.text.SW6306_WLEDSet) refers to sw6306.o(.text.SW6306_ByteModify) for SW6306_ByteModify
    sw6306.o(.text.SW6306_WLEDSet) refers to sw6306.o(.bss.SW6306_WLEDSet.steps) for [Anonymous Symbol]
    sw6306.o(.ARM.exidx.text.SW6306_WLEDSet) refers to sw6306.o(.text.SW6306_WLEDSet) for [Anonymous Symbol]
    sw6306.o(.text.SW6306_IO1Set) refers to sw6306.o(.text.SW6306_RegsetSwitch) for SW6306_RegsetSwitch
    sw6306.o(.text.SW6306_IO1Set) refers to sw6306.o(.text.SW6306_ByteModify) for SW6306_ByteModify
    sw6306.o(.text.SW6306_IO1Set) refers to sw6306.o(.bss.SW6306_IO1Set.steps) for [Anonymous Symbol]
    sw6306.o(.ARM.exidx.text.SW6306_IO1Set) refers to sw6306.o(.text.SW6306_IO1Set) for [Anonymous Symbol]
    sw6306.o(.text.SW6306_IsInitialized) refers to sw6306.o(.bss.SW6306_Status) for [Anonymous Symbol]
    sw6306.o(.ARM.exidx.text.SW6306_IsInitialized) refers to sw6306.o(.text.SW6306_IsInitialized) for [Anonymous Symbol]
    entry.o(.ARM.Collect$$$$00000000) refers (Special) to entry10a.o(.ARM.Collect$$$$0000000D) for __rt_final_cpp
    entry.o(.ARM.Collect$$$$00000000) refers (Special) to entry11a.o(.ARM.Collect$$$$0000000F) for __rt_final_exit
    entry.o(.ARM.Collect$$$$00000000) refers (Special) to entry7b.o(.ARM.Collect$$$$00000008) for _main_clock
    entry.o(.ARM.Collect$$$$00000000) refers (Special) to entry8b.o(.ARM.Collect$$$$0000000A) for _main_cpp_init
    entry.o(.ARM.Collect$$$$00000000) refers (Special) to entry9a.o(.ARM.Collect$$$$0000000B) for _main_init
    entry.o(.ARM.Collect$$$$00000000) refers (Special) to entry5.o(.ARM.Collect$$$$00000004) for _main_scatterload
    entry.o(.ARM.Collect$$$$00000000) refers (Special) to entry2.o(.ARM.Collect$$$$00000001) for _main_stk
    printfa.o(i.__0fprintf) refers (Special) to iusefp.o(.text) for __I$use$fp
    printfa.o(i.__0fprintf) refers to printfa.o(i._printf_core) for _printf_core
    printfa.o(i.__0fprintf) refers to fputc.o(i.fputc) for fputc
    printfa.o(i.__0printf) refers (Special) to iusefp.o(.text) for __I$use$fp
    printfa.o(i.__0printf) refers to printfa.o(i._printf_core) for _printf_core
    printfa.o(i.__0printf) refers to fputc.o(i.fputc) for fputc
    printfa.o(i.__0printf) refers to stdout.o(.data) for __stdout
    printfa.o(i.__0snprintf) refers (Special) to iusefp.o(.text) for __I$use$fp
    printfa.o(i.__0snprintf) refers to printfa.o(i._printf_core) for _printf_core
    printfa.o(i.__0snprintf) refers to printfa.o(i._snputc) for _snputc
    printfa.o(i.__0sprintf) refers (Special) to iusefp.o(.text) for __I$use$fp
    printfa.o(i.__0sprintf) refers to printfa.o(i._printf_core) for _printf_core
    printfa.o(i.__0sprintf) refers to printfa.o(i._sputc) for _sputc
    printfa.o(i.__0vfprintf) refers (Special) to iusefp.o(.text) for __I$use$fp
    printfa.o(i.__0vfprintf) refers to printfa.o(i._printf_core) for _printf_core
    printfa.o(i.__0vfprintf) refers to fputc.o(i.fputc) for fputc
    printfa.o(i.__0vprintf) refers (Special) to iusefp.o(.text) for __I$use$fp
    printfa.o(i.__0vprintf) refers to printfa.o(i._printf_core) for _printf_core
    printfa.o(i.__0vprintf) refers to fputc.o(i.fputc) for fputc
    printfa.o(i.__0vprintf) refers to stdout.o(.data) for __stdout
    printfa.o(i.__0vsnprintf) refers (Special) to iusefp.o(.text) for __I$use$fp
    printfa.o(i.__0vsnprintf) refers to printfa.o(i._printf_core) for _printf_core
    printfa.o(i.__0vsnprintf) refers to printfa.o(i._snputc) for _snputc
    printfa.o(i.__0vsprintf) refers (Special) to iusefp.o(.text) for __I$use$fp
    printfa.o(i.__0vsprintf) refers to printfa.o(i._printf_core) for _printf_core
    printfa.o(i.__0vsprintf) refers to printfa.o(i._sputc) for _sputc
    printfa.o(i._fp_digits) refers (Special) to iusefp.o(.text) for __I$use$fp
    printfa.o(i._fp_digits) refers to dmul.o(.text) for __aeabi_dmul
    printfa.o(i._fp_digits) refers to ddiv.o(.text) for __aeabi_ddiv
    printfa.o(i._fp_digits) refers to cdrcmple.o(.text) for __aeabi_cdrcmple
    printfa.o(i._fp_digits) refers to dadd.o(.text) for __aeabi_dadd
    printfa.o(i._fp_digits) refers to dfixul.o(.text) for __aeabi_d2ulz
    printfa.o(i._fp_digits) refers to uldiv.o(.text) for __aeabi_uldivmod
    printfa.o(i._printf_core) refers (Special) to iusefp.o(.text) for __I$use$fp
    printfa.o(i._printf_core) refers to printfa.o(i._printf_pre_padding) for _printf_pre_padding
    printfa.o(i._printf_core) refers to uldiv.o(.text) for __aeabi_uldivmod
    printfa.o(i._printf_core) refers to printfa.o(i._printf_post_padding) for _printf_post_padding
    printfa.o(i._printf_core) refers to printfa.o(i._fp_digits) for _fp_digits
    printfa.o(i._printf_core) refers to uidiv_div0.o(.text) for __aeabi_uidivmod
    printfa.o(i._printf_post_padding) refers (Special) to iusefp.o(.text) for __I$use$fp
    printfa.o(i._printf_pre_padding) refers (Special) to iusefp.o(.text) for __I$use$fp
    printfa.o(i._snputc) refers (Special) to iusefp.o(.text) for __I$use$fp
    printfa.o(i._sputc) refers (Special) to iusefp.o(.text) for __I$use$fp
    dmul.o(.text) refers (Special) to iusefp.o(.text) for __I$use$fp
    dmul.o(.text) refers to depilogue.o(.text) for _double_epilogue
    ddiv.o(.text) refers (Special) to iusefp.o(.text) for __I$use$fp
    ddiv.o(.text) refers to depilogue.o(.text) for _double_round
    fflti.o(.text) refers (Special) to iusefp.o(.text) for __I$use$fp
    fflti.o(.text) refers to fepilogue.o(.text) for _float_epilogue
    dfltui.o(.text) refers (Special) to iusefp.o(.text) for __I$use$fp
    dfltui.o(.text) refers to depilogue.o(.text) for _double_epilogue
    f2d.o(.text) refers (Special) to iusefp.o(.text) for __I$use$fp
    d2f.o(.text) refers (Special) to iusefp.o(.text) for __I$use$fp
    d2f.o(.text) refers to fepilogue.o(.text) for _float_round
    entry2.o(.ARM.Collect$$$$00000001) refers to entry2.o(.ARM.Collect$$$$00002712) for __lit__00000000
    entry2.o(.ARM.Collect$$$$00002712) refers to startup_py32f030xx.o(STACK) for __initial_sp
    entry2.o(__vectab_stack_and_reset_area) refers to startup_py32f030xx.o(STACK) for __initial_sp
    entry2.o(__vectab_stack_and_reset_area) refers to entry.o(.ARM.Collect$$$$00000000) for __main
    entry5.o(.ARM.Collect$$$$00000004) refers to init.o(.text) for __scatterload
    entry9a.o(.ARM.Collect$$$$0000000B) refers to system_py32f0xx.o(.text.$Sub$$main) for main
    entry9b.o(.ARM.Collect$$$$0000000C) refers to system_py32f0xx.o(.text.$Sub$$main) for main
    fputc.o(i.fputc) refers (Special) to iusesemip.o(.text) for __I$use$semihosting$fputc
    fputc.o(i.fputc) refers (Special) to semi.o(.text) for __semihosting_library_function
    fputc_h.o(i._fputc$hlt) refers (Special) to iusesemip.o(.text) for __I$use$semihosting$fputc
    fputc_h.o(i._fputc$hlt) refers (Special) to semi.o(.text) for __semihosting_library_function
    idiv_div0.o(.text) refers to uidiv_div0.o(.text) for __aeabi_uidivmod
    uldiv.o(.text) refers to llushr.o(.text) for __aeabi_llsr
    uldiv.o(.text) refers to llshl.o(.text) for __aeabi_llsl
    fepilogue.o(.text) refers (Special) to iusefp.o(.text) for __I$use$fp
    depilogue.o(.text) refers (Special) to iusefp.o(.text) for __I$use$fp
    depilogue.o(.text) refers to depilogue.o(i.__ARM_clz) for __ARM_clz
    depilogue.o(.text) refers to llshl.o(.text) for __aeabi_llsl
    depilogue.o(.text) refers to llushr.o(.text) for __aeabi_llsr
    dadd.o(.text) refers (Special) to iusefp.o(.text) for __I$use$fp
    dadd.o(.text) refers to llshl.o(.text) for __aeabi_llsl
    dadd.o(.text) refers to llsshr.o(.text) for __aeabi_lasr
    dadd.o(.text) refers to depilogue.o(.text) for _double_epilogue
    dfixul.o(.text) refers (Special) to iusefp.o(.text) for __I$use$fp
    dfixul.o(.text) refers to llushr.o(.text) for __aeabi_llsr
    dfixul.o(.text) refers to llshl.o(.text) for __aeabi_llsl
    cdrcmple.o(.text) refers (Special) to iusefp.o(.text) for __I$use$fp
    init.o(.text) refers to entry5.o(.ARM.Collect$$$$00000004) for __main_after_scatterload
    depilogue.o(i.__ARM_clz) refers (Special) to iusefp.o(.text) for __I$use$fp


==============================================================================

Removing Unused input sections from the image.

    Removing startup_py32f030xx.o(HEAP), (0 bytes).
    Removing system_py32f0xx.o(.text), (0 bytes).
    Removing system_py32f0xx.o(.text.SystemCoreClockUpdate), (136 bytes).
    Removing system_py32f0xx.o(.ARM.exidx.text.SystemCoreClockUpdate), (8 bytes).
    Removing system_py32f0xx.o(.ARM.exidx.text.SystemInit), (8 bytes).
    Removing system_py32f0xx.o(.ARM.exidx.text.$Sub$$main), (8 bytes).
    Removing py32f0xx_it.o(.text), (0 bytes).
    Removing py32f0xx_it.o(.ARM.exidx.text.NMI_Handler), (8 bytes).
    Removing py32f0xx_it.o(.ARM.exidx.text.HardFault_Handler), (8 bytes).
    Removing py32f0xx_it.o(.ARM.exidx.text.SVC_Handler), (8 bytes).
    Removing py32f0xx_it.o(.ARM.exidx.text.PendSV_Handler), (8 bytes).
    Removing py32f0xx_it.o(.ARM.exidx.text.SysTick_Handler), (8 bytes).
    Removing bsp_py32f030x6.o(.text), (0 bytes).
    Removing bsp_py32f030x6.o(.ARM.exidx.text.SysInit), (8 bytes).
    Removing main.o(.text), (0 bytes).
    Removing main.o(.ARM.exidx.text.thread_app), (8 bytes).
    Removing main.o(.ARM.exidx.text.__NVIC_SystemReset), (8 bytes).
    Removing main.o(.ARM.exidx.text.thread_echo), (8 bytes).
    Removing main.o(.ARM.exidx.text.thread_key), (8 bytes).
    Removing main.o(.ARM.exidx.text.LL_GPIO_ResetOutputPin), (8 bytes).
    Removing main.o(.ARM.exidx.text.LL_GPIO_SetOutputPin), (8 bytes).
    Removing main.o(.ARM.exidx.text.thread_trig), (8 bytes).
    Removing main.o(.ARM.exidx.text.main), (8 bytes).
    Removing main.o(.ARM.exidx.text.LL_GPIO_IsInputPinSet), (8 bytes).
    Removing main.o(.ARM.exidx.text.LL_SYSTICK_DisableIT), (8 bytes).
    Removing main.o(.ARM.exidx.text.LL_LPM_EnableDeepSleep), (8 bytes).
    Removing main.o(.ARM.exidx.text.LL_SYSTICK_EnableIT), (8 bytes).
    Removing main.o(.ARM.exidx.text.LL_LPM_EnableSleep), (8 bytes).
    Removing main.o(.text.APP_ErrorHandler), (2 bytes).
    Removing main.o(.ARM.exidx.text.APP_ErrorHandler), (8 bytes).
    Removing main.o(.bss.sendbuff), (1 bytes).
    Removing main.o(.ARM.use_no_argv), (4 bytes).
    Removing debounce_key.o(.text), (0 bytes).
    Removing debounce_key.o(.ARM.exidx.text.KEY_GetIO), (8 bytes).
    Removing debounce_key.o(.ARM.exidx.text.Key_Scand), (8 bytes).
    Removing debounce_key.o(.ARM.exidx.text.Key_DebounceService_10ms), (8 bytes).
    Removing debounce_key.o(.ARM.exidx.text.Key_Init), (8 bytes).
    Removing debounce_key.o(.ARM.exidx.text.Key_EdgeDetect), (8 bytes).
    Removing debounce_key.o(.text.KEY_GetState), (12 bytes).
    Removing debounce_key.o(.ARM.exidx.text.KEY_GetState), (8 bytes).
    Removing debounce_key.o(.ARM.exidx.text.LL_GPIO_IsInputPinSet), (8 bytes).
    Removing debounce_key.o(.rodata.KeyInfo_Array), (8 bytes).
    Removing py32f0xx_ll_adc.o(.text), (0 bytes).
    Removing py32f0xx_ll_adc.o(.text.LL_ADC_CommonDeInit), (14 bytes).
    Removing py32f0xx_ll_adc.o(.ARM.exidx.text.LL_ADC_CommonDeInit), (8 bytes).
    Removing py32f0xx_ll_adc.o(.text.LL_APB1_GRP2_ForceReset), (20 bytes).
    Removing py32f0xx_ll_adc.o(.ARM.exidx.text.LL_APB1_GRP2_ForceReset), (8 bytes).
    Removing py32f0xx_ll_adc.o(.text.LL_APB1_GRP2_ReleaseReset), (20 bytes).
    Removing py32f0xx_ll_adc.o(.ARM.exidx.text.LL_APB1_GRP2_ReleaseReset), (8 bytes).
    Removing py32f0xx_ll_adc.o(.text.LL_ADC_DeInit), (268 bytes).
    Removing py32f0xx_ll_adc.o(.ARM.exidx.text.LL_ADC_DeInit), (8 bytes).
    Removing py32f0xx_ll_adc.o(.text.LL_ADC_IsEnabled), (8 bytes).
    Removing py32f0xx_ll_adc.o(.ARM.exidx.text.LL_ADC_IsEnabled), (8 bytes).
    Removing py32f0xx_ll_adc.o(.text.LL_ADC_REG_SetTriggerSource), (12 bytes).
    Removing py32f0xx_ll_adc.o(.ARM.exidx.text.LL_ADC_REG_SetTriggerSource), (8 bytes).
    Removing py32f0xx_ll_adc.o(.text.LL_ADC_REG_IsConversionOngoing), (8 bytes).
    Removing py32f0xx_ll_adc.o(.ARM.exidx.text.LL_ADC_REG_IsConversionOngoing), (8 bytes).
    Removing py32f0xx_ll_adc.o(.text.LL_ADC_REG_IsStopConversionOngoing), (8 bytes).
    Removing py32f0xx_ll_adc.o(.ARM.exidx.text.LL_ADC_REG_IsStopConversionOngoing), (8 bytes).
    Removing py32f0xx_ll_adc.o(.text.LL_ADC_REG_StopConversion), (16 bytes).
    Removing py32f0xx_ll_adc.o(.ARM.exidx.text.LL_ADC_REG_StopConversion), (8 bytes).
    Removing py32f0xx_ll_adc.o(.text.LL_ADC_REG_StartConversion), (16 bytes).
    Removing py32f0xx_ll_adc.o(.ARM.exidx.text.LL_ADC_REG_StartConversion), (8 bytes).
    Removing py32f0xx_ll_adc.o(.text.LL_ADC_Init), (60 bytes).
    Removing py32f0xx_ll_adc.o(.ARM.exidx.text.LL_ADC_Init), (8 bytes).
    Removing py32f0xx_ll_adc.o(.text.LL_ADC_StructInit), (16 bytes).
    Removing py32f0xx_ll_adc.o(.ARM.exidx.text.LL_ADC_StructInit), (8 bytes).
    Removing py32f0xx_ll_adc.o(.text.LL_ADC_REG_Init), (48 bytes).
    Removing py32f0xx_ll_adc.o(.ARM.exidx.text.LL_ADC_REG_Init), (8 bytes).
    Removing py32f0xx_ll_adc.o(.text.LL_ADC_REG_StructInit), (18 bytes).
    Removing py32f0xx_ll_adc.o(.ARM.exidx.text.LL_ADC_REG_StructInit), (8 bytes).
    Removing py32f0xx_ll_dma.o(.text), (0 bytes).
    Removing py32f0xx_ll_dma.o(.text.LL_DMA_DeInit), (112 bytes).
    Removing py32f0xx_ll_dma.o(.ARM.exidx.text.LL_DMA_DeInit), (8 bytes).
    Removing py32f0xx_ll_dma.o(.text.LL_DMA_ClearFlag_GI1), (6 bytes).
    Removing py32f0xx_ll_dma.o(.ARM.exidx.text.LL_DMA_ClearFlag_GI1), (8 bytes).
    Removing py32f0xx_ll_dma.o(.text.LL_DMA_ClearFlag_GI2), (6 bytes).
    Removing py32f0xx_ll_dma.o(.ARM.exidx.text.LL_DMA_ClearFlag_GI2), (8 bytes).
    Removing py32f0xx_ll_dma.o(.text.LL_DMA_ClearFlag_GI3), (8 bytes).
    Removing py32f0xx_ll_dma.o(.ARM.exidx.text.LL_DMA_ClearFlag_GI3), (8 bytes).
    Removing py32f0xx_ll_dma.o(.text.LL_DMA_Init), (88 bytes).
    Removing py32f0xx_ll_dma.o(.ARM.exidx.text.LL_DMA_Init), (8 bytes).
    Removing py32f0xx_ll_dma.o(.text.LL_DMA_ConfigTransfer), (32 bytes).
    Removing py32f0xx_ll_dma.o(.ARM.exidx.text.LL_DMA_ConfigTransfer), (8 bytes).
    Removing py32f0xx_ll_dma.o(.text.LL_DMA_SetMemoryAddress), (20 bytes).
    Removing py32f0xx_ll_dma.o(.ARM.exidx.text.LL_DMA_SetMemoryAddress), (8 bytes).
    Removing py32f0xx_ll_dma.o(.text.LL_DMA_SetPeriphAddress), (20 bytes).
    Removing py32f0xx_ll_dma.o(.ARM.exidx.text.LL_DMA_SetPeriphAddress), (8 bytes).
    Removing py32f0xx_ll_dma.o(.text.LL_DMA_SetDataLength), (32 bytes).
    Removing py32f0xx_ll_dma.o(.ARM.exidx.text.LL_DMA_SetDataLength), (8 bytes).
    Removing py32f0xx_ll_dma.o(.text.LL_DMA_StructInit), (10 bytes).
    Removing py32f0xx_ll_dma.o(.ARM.exidx.text.LL_DMA_StructInit), (8 bytes).
    Removing py32f0xx_ll_dma.o(.rodata.CHANNEL_OFFSET_TAB), (3 bytes).
    Removing py32f0xx_ll_exti.o(.text), (0 bytes).
    Removing py32f0xx_ll_exti.o(.text.LL_EXTI_DeInit), (40 bytes).
    Removing py32f0xx_ll_exti.o(.ARM.exidx.text.LL_EXTI_DeInit), (8 bytes).
    Removing py32f0xx_ll_exti.o(.ARM.exidx.text.LL_EXTI_Init), (8 bytes).
    Removing py32f0xx_ll_exti.o(.ARM.exidx.text.LL_EXTI_DisableEvent), (8 bytes).
    Removing py32f0xx_ll_exti.o(.ARM.exidx.text.LL_EXTI_EnableIT), (8 bytes).
    Removing py32f0xx_ll_exti.o(.ARM.exidx.text.LL_EXTI_DisableIT), (8 bytes).
    Removing py32f0xx_ll_exti.o(.ARM.exidx.text.LL_EXTI_EnableEvent), (8 bytes).
    Removing py32f0xx_ll_exti.o(.ARM.exidx.text.LL_EXTI_DisableFallingTrig), (8 bytes).
    Removing py32f0xx_ll_exti.o(.ARM.exidx.text.LL_EXTI_EnableRisingTrig), (8 bytes).
    Removing py32f0xx_ll_exti.o(.ARM.exidx.text.LL_EXTI_DisableRisingTrig), (8 bytes).
    Removing py32f0xx_ll_exti.o(.ARM.exidx.text.LL_EXTI_EnableFallingTrig), (8 bytes).
    Removing py32f0xx_ll_exti.o(.text.LL_EXTI_StructInit), (12 bytes).
    Removing py32f0xx_ll_exti.o(.ARM.exidx.text.LL_EXTI_StructInit), (8 bytes).
    Removing py32f0xx_ll_gpio.o(.text), (0 bytes).
    Removing py32f0xx_ll_gpio.o(.text.LL_GPIO_DeInit), (64 bytes).
    Removing py32f0xx_ll_gpio.o(.ARM.exidx.text.LL_GPIO_DeInit), (8 bytes).
    Removing py32f0xx_ll_gpio.o(.text.LL_IOP_GRP1_ForceReset), (16 bytes).
    Removing py32f0xx_ll_gpio.o(.ARM.exidx.text.LL_IOP_GRP1_ForceReset), (8 bytes).
    Removing py32f0xx_ll_gpio.o(.text.LL_IOP_GRP1_ReleaseReset), (16 bytes).
    Removing py32f0xx_ll_gpio.o(.ARM.exidx.text.LL_IOP_GRP1_ReleaseReset), (8 bytes).
    Removing py32f0xx_ll_gpio.o(.ARM.exidx.text.LL_GPIO_Init), (8 bytes).
    Removing py32f0xx_ll_gpio.o(.ARM.exidx.text.LL_GPIO_SetPinMode), (8 bytes).
    Removing py32f0xx_ll_gpio.o(.ARM.exidx.text.LL_GPIO_SetPinSpeed), (8 bytes).
    Removing py32f0xx_ll_gpio.o(.ARM.exidx.text.LL_GPIO_SetPinPull), (8 bytes).
    Removing py32f0xx_ll_gpio.o(.ARM.exidx.text.LL_GPIO_SetAFPin_0_7), (8 bytes).
    Removing py32f0xx_ll_gpio.o(.ARM.exidx.text.LL_GPIO_SetAFPin_8_15), (8 bytes).
    Removing py32f0xx_ll_gpio.o(.ARM.exidx.text.LL_GPIO_SetPinOutputType), (8 bytes).
    Removing py32f0xx_ll_gpio.o(.text.LL_GPIO_StructInit), (24 bytes).
    Removing py32f0xx_ll_gpio.o(.ARM.exidx.text.LL_GPIO_StructInit), (8 bytes).
    Removing py32f0xx_ll_i2c.o(.text), (0 bytes).
    Removing py32f0xx_ll_i2c.o(.text.LL_I2C_DeInit), (28 bytes).
    Removing py32f0xx_ll_i2c.o(.ARM.exidx.text.LL_I2C_DeInit), (8 bytes).
    Removing py32f0xx_ll_i2c.o(.text.LL_APB1_GRP1_ForceReset), (20 bytes).
    Removing py32f0xx_ll_i2c.o(.ARM.exidx.text.LL_APB1_GRP1_ForceReset), (8 bytes).
    Removing py32f0xx_ll_i2c.o(.text.LL_APB1_GRP1_ReleaseReset), (20 bytes).
    Removing py32f0xx_ll_i2c.o(.ARM.exidx.text.LL_APB1_GRP1_ReleaseReset), (8 bytes).
    Removing py32f0xx_ll_i2c.o(.ARM.exidx.text.LL_I2C_Init), (8 bytes).
    Removing py32f0xx_ll_i2c.o(.ARM.exidx.text.LL_I2C_Disable), (8 bytes).
    Removing py32f0xx_ll_i2c.o(.ARM.exidx.text.LL_I2C_ConfigSpeed), (8 bytes).
    Removing py32f0xx_ll_i2c.o(.ARM.exidx.text.LL_I2C_SetOwnAddress1), (8 bytes).
    Removing py32f0xx_ll_i2c.o(.ARM.exidx.text.LL_I2C_Enable), (8 bytes).
    Removing py32f0xx_ll_i2c.o(.ARM.exidx.text.LL_I2C_AcknowledgeNextData), (8 bytes).
    Removing py32f0xx_ll_i2c.o(.text.LL_I2C_StructInit), (20 bytes).
    Removing py32f0xx_ll_i2c.o(.ARM.exidx.text.LL_I2C_StructInit), (8 bytes).
    Removing py32f0xx_ll_lptim.o(.text), (0 bytes).
    Removing py32f0xx_ll_lptim.o(.text.LL_LPTIM_DeInit), (28 bytes).
    Removing py32f0xx_ll_lptim.o(.ARM.exidx.text.LL_LPTIM_DeInit), (8 bytes).
    Removing py32f0xx_ll_lptim.o(.text.LL_APB1_GRP1_ForceReset), (20 bytes).
    Removing py32f0xx_ll_lptim.o(.ARM.exidx.text.LL_APB1_GRP1_ForceReset), (8 bytes).
    Removing py32f0xx_ll_lptim.o(.text.LL_APB1_GRP1_ReleaseReset), (20 bytes).
    Removing py32f0xx_ll_lptim.o(.ARM.exidx.text.LL_APB1_GRP1_ReleaseReset), (8 bytes).
    Removing py32f0xx_ll_lptim.o(.text.LL_LPTIM_StructInit), (8 bytes).
    Removing py32f0xx_ll_lptim.o(.ARM.exidx.text.LL_LPTIM_StructInit), (8 bytes).
    Removing py32f0xx_ll_lptim.o(.text.LL_LPTIM_Init), (40 bytes).
    Removing py32f0xx_ll_lptim.o(.ARM.exidx.text.LL_LPTIM_Init), (8 bytes).
    Removing py32f0xx_ll_lptim.o(.text.LL_LPTIM_IsEnabled), (8 bytes).
    Removing py32f0xx_ll_lptim.o(.ARM.exidx.text.LL_LPTIM_IsEnabled), (8 bytes).
    Removing py32f0xx_ll_pwr.o(.text), (0 bytes).
    Removing py32f0xx_ll_pwr.o(.text.LL_PWR_DeInit), (14 bytes).
    Removing py32f0xx_ll_pwr.o(.ARM.exidx.text.LL_PWR_DeInit), (8 bytes).
    Removing py32f0xx_ll_pwr.o(.text.LL_APB1_GRP1_ForceReset), (20 bytes).
    Removing py32f0xx_ll_pwr.o(.ARM.exidx.text.LL_APB1_GRP1_ForceReset), (8 bytes).
    Removing py32f0xx_ll_pwr.o(.text.LL_APB1_GRP1_ReleaseReset), (20 bytes).
    Removing py32f0xx_ll_pwr.o(.ARM.exidx.text.LL_APB1_GRP1_ReleaseReset), (8 bytes).
    Removing py32f0xx_ll_rcc.o(.text), (0 bytes).
    Removing py32f0xx_ll_rcc.o(.text.LL_RCC_DeInit), (92 bytes).
    Removing py32f0xx_ll_rcc.o(.ARM.exidx.text.LL_RCC_DeInit), (8 bytes).
    Removing py32f0xx_ll_rcc.o(.text.LL_RCC_HSI_Enable), (20 bytes).
    Removing py32f0xx_ll_rcc.o(.ARM.exidx.text.LL_RCC_HSI_Enable), (8 bytes).
    Removing py32f0xx_ll_rcc.o(.text.LL_RCC_HSI_IsReady), (16 bytes).
    Removing py32f0xx_ll_rcc.o(.ARM.exidx.text.LL_RCC_HSI_IsReady), (8 bytes).
    Removing py32f0xx_ll_rcc.o(.text.LL_RCC_HSI_SetCalibFreq), (24 bytes).
    Removing py32f0xx_ll_rcc.o(.ARM.exidx.text.LL_RCC_HSI_SetCalibFreq), (8 bytes).
    Removing py32f0xx_ll_rcc.o(.ARM.exidx.text.LL_RCC_GetSysClkSource), (8 bytes).
    Removing py32f0xx_ll_rcc.o(.text.LL_RCC_HSE_IsReady), (16 bytes).
    Removing py32f0xx_ll_rcc.o(.ARM.exidx.text.LL_RCC_HSE_IsReady), (8 bytes).
    Removing py32f0xx_ll_rcc.o(.text.LL_RCC_PLL_IsReady), (16 bytes).
    Removing py32f0xx_ll_rcc.o(.ARM.exidx.text.LL_RCC_PLL_IsReady), (8 bytes).
    Removing py32f0xx_ll_rcc.o(.ARM.exidx.text.LL_RCC_GetSystemClocksFreq), (8 bytes).
    Removing py32f0xx_ll_rcc.o(.ARM.exidx.text.RCC_GetSystemClockFreq), (8 bytes).
    Removing py32f0xx_ll_rcc.o(.ARM.exidx.text.RCC_GetHCLKClockFreq), (8 bytes).
    Removing py32f0xx_ll_rcc.o(.ARM.exidx.text.RCC_GetPCLK1ClockFreq), (8 bytes).
    Removing py32f0xx_ll_rcc.o(.text.LL_RCC_GetMCOClockFreq), (112 bytes).
    Removing py32f0xx_ll_rcc.o(.ARM.exidx.text.LL_RCC_GetMCOClockFreq), (8 bytes).
    Removing py32f0xx_ll_rcc.o(.text.LL_RCC_GetMCOClockSource), (12 bytes).
    Removing py32f0xx_ll_rcc.o(.ARM.exidx.text.LL_RCC_GetMCOClockSource), (8 bytes).
    Removing py32f0xx_ll_rcc.o(.ARM.exidx.text.LL_RCC_HSI_GetFreq), (8 bytes).
    Removing py32f0xx_ll_rcc.o(.ARM.exidx.text.RCC_PLL_GetFreqDomain_SYS), (8 bytes).
    Removing py32f0xx_ll_rcc.o(.text.LL_RCC_LSI_IsReady), (16 bytes).
    Removing py32f0xx_ll_rcc.o(.ARM.exidx.text.LL_RCC_LSI_IsReady), (8 bytes).
    Removing py32f0xx_ll_rcc.o(.text.LL_RCC_LSE_IsReady), (16 bytes).
    Removing py32f0xx_ll_rcc.o(.ARM.exidx.text.LL_RCC_LSE_IsReady), (8 bytes).
    Removing py32f0xx_ll_rcc.o(.text.LL_RCC_GetMCODiv), (16 bytes).
    Removing py32f0xx_ll_rcc.o(.ARM.exidx.text.LL_RCC_GetMCODiv), (8 bytes).
    Removing py32f0xx_ll_rcc.o(.text.LL_RCC_GetLSCClockFreq), (44 bytes).
    Removing py32f0xx_ll_rcc.o(.ARM.exidx.text.LL_RCC_GetLSCClockFreq), (8 bytes).
    Removing py32f0xx_ll_rcc.o(.text.LL_RCC_LSCO_GetSource), (16 bytes).
    Removing py32f0xx_ll_rcc.o(.ARM.exidx.text.LL_RCC_LSCO_GetSource), (8 bytes).
    Removing py32f0xx_ll_rcc.o(.text.LL_RCC_GetPVDClockFreq), (30 bytes).
    Removing py32f0xx_ll_rcc.o(.ARM.exidx.text.LL_RCC_GetPVDClockFreq), (8 bytes).
    Removing py32f0xx_ll_rcc.o(.text.LL_RCC_GetPVDClockSource), (16 bytes).
    Removing py32f0xx_ll_rcc.o(.ARM.exidx.text.LL_RCC_GetPVDClockSource), (8 bytes).
    Removing py32f0xx_ll_rcc.o(.text.LL_RCC_GetCOMPClockFreq), (64 bytes).
    Removing py32f0xx_ll_rcc.o(.ARM.exidx.text.LL_RCC_GetCOMPClockFreq), (8 bytes).
    Removing py32f0xx_ll_rcc.o(.text.LL_RCC_GetCOMPClockSource), (16 bytes).
    Removing py32f0xx_ll_rcc.o(.ARM.exidx.text.LL_RCC_GetCOMPClockSource), (8 bytes).
    Removing py32f0xx_ll_rcc.o(.text.LL_RCC_GetLPTIMClockFreq), (84 bytes).
    Removing py32f0xx_ll_rcc.o(.ARM.exidx.text.LL_RCC_GetLPTIMClockFreq), (8 bytes).
    Removing py32f0xx_ll_rcc.o(.text.LL_RCC_GetLPTIMClockSource), (24 bytes).
    Removing py32f0xx_ll_rcc.o(.ARM.exidx.text.LL_RCC_GetLPTIMClockSource), (8 bytes).
    Removing py32f0xx_ll_rcc.o(.text.LL_RCC_GetRTCClockFreq), (80 bytes).
    Removing py32f0xx_ll_rcc.o(.ARM.exidx.text.LL_RCC_GetRTCClockFreq), (8 bytes).
    Removing py32f0xx_ll_rcc.o(.text.LL_RCC_GetRTCClockSource), (16 bytes).
    Removing py32f0xx_ll_rcc.o(.ARM.exidx.text.LL_RCC_GetRTCClockSource), (8 bytes).
    Removing py32f0xx_ll_rcc.o(.ARM.exidx.text.LL_RCC_GetHSIDiv), (8 bytes).
    Removing py32f0xx_ll_rcc.o(.ARM.exidx.text.LL_RCC_GetAHBPrescaler), (8 bytes).
    Removing py32f0xx_ll_rcc.o(.ARM.exidx.text.LL_RCC_GetAPB1Prescaler), (8 bytes).
    Removing py32f0xx_ll_rcc.o(.ARM.exidx.text.LL_RCC_PLL_GetMainSource), (8 bytes).
    Removing py32f0xx_ll_tim.o(.text), (0 bytes).
    Removing py32f0xx_ll_tim.o(.text.LL_TIM_DeInit), (152 bytes).
    Removing py32f0xx_ll_tim.o(.ARM.exidx.text.LL_TIM_DeInit), (8 bytes).
    Removing py32f0xx_ll_tim.o(.text.LL_APB1_GRP2_ForceReset), (16 bytes).
    Removing py32f0xx_ll_tim.o(.ARM.exidx.text.LL_APB1_GRP2_ForceReset), (8 bytes).
    Removing py32f0xx_ll_tim.o(.text.LL_APB1_GRP2_ReleaseReset), (16 bytes).
    Removing py32f0xx_ll_tim.o(.ARM.exidx.text.LL_APB1_GRP2_ReleaseReset), (8 bytes).
    Removing py32f0xx_ll_tim.o(.text.LL_APB1_GRP1_ForceReset), (16 bytes).
    Removing py32f0xx_ll_tim.o(.ARM.exidx.text.LL_APB1_GRP1_ForceReset), (8 bytes).
    Removing py32f0xx_ll_tim.o(.text.LL_APB1_GRP1_ReleaseReset), (16 bytes).
    Removing py32f0xx_ll_tim.o(.ARM.exidx.text.LL_APB1_GRP1_ReleaseReset), (8 bytes).
    Removing py32f0xx_ll_tim.o(.text.LL_TIM_StructInit), (16 bytes).
    Removing py32f0xx_ll_tim.o(.ARM.exidx.text.LL_TIM_StructInit), (8 bytes).
    Removing py32f0xx_ll_tim.o(.ARM.exidx.text.LL_TIM_Init), (8 bytes).
    Removing py32f0xx_ll_tim.o(.ARM.exidx.text.LL_TIM_SetAutoReload), (8 bytes).
    Removing py32f0xx_ll_tim.o(.ARM.exidx.text.LL_TIM_SetPrescaler), (8 bytes).
    Removing py32f0xx_ll_tim.o(.ARM.exidx.text.LL_TIM_SetRepetitionCounter), (8 bytes).
    Removing py32f0xx_ll_tim.o(.ARM.exidx.text.LL_TIM_GenerateEvent_UPDATE), (8 bytes).
    Removing py32f0xx_ll_tim.o(.text.LL_TIM_OC_StructInit), (20 bytes).
    Removing py32f0xx_ll_tim.o(.ARM.exidx.text.LL_TIM_OC_StructInit), (8 bytes).
    Removing py32f0xx_ll_tim.o(.ARM.exidx.text.LL_TIM_OC_Init), (8 bytes).
    Removing py32f0xx_ll_tim.o(.ARM.exidx.text.OC1Config), (8 bytes).
    Removing py32f0xx_ll_tim.o(.ARM.exidx.text.OC2Config), (8 bytes).
    Removing py32f0xx_ll_tim.o(.ARM.exidx.text.OC3Config), (8 bytes).
    Removing py32f0xx_ll_tim.o(.ARM.exidx.text.OC4Config), (8 bytes).
    Removing py32f0xx_ll_tim.o(.text.LL_TIM_IC_StructInit), (14 bytes).
    Removing py32f0xx_ll_tim.o(.ARM.exidx.text.LL_TIM_IC_StructInit), (8 bytes).
    Removing py32f0xx_ll_tim.o(.text.LL_TIM_IC_Init), (80 bytes).
    Removing py32f0xx_ll_tim.o(.ARM.exidx.text.LL_TIM_IC_Init), (8 bytes).
    Removing py32f0xx_ll_tim.o(.text.IC1Config), (48 bytes).
    Removing py32f0xx_ll_tim.o(.ARM.exidx.text.IC1Config), (8 bytes).
    Removing py32f0xx_ll_tim.o(.text.IC2Config), (52 bytes).
    Removing py32f0xx_ll_tim.o(.ARM.exidx.text.IC2Config), (8 bytes).
    Removing py32f0xx_ll_tim.o(.text.IC3Config), (54 bytes).
    Removing py32f0xx_ll_tim.o(.ARM.exidx.text.IC3Config), (8 bytes).
    Removing py32f0xx_ll_tim.o(.text.IC4Config), (56 bytes).
    Removing py32f0xx_ll_tim.o(.ARM.exidx.text.IC4Config), (8 bytes).
    Removing py32f0xx_ll_tim.o(.text.LL_TIM_ENCODER_StructInit), (26 bytes).
    Removing py32f0xx_ll_tim.o(.ARM.exidx.text.LL_TIM_ENCODER_StructInit), (8 bytes).
    Removing py32f0xx_ll_tim.o(.text.LL_TIM_ENCODER_Init), (128 bytes).
    Removing py32f0xx_ll_tim.o(.ARM.exidx.text.LL_TIM_ENCODER_Init), (8 bytes).
    Removing py32f0xx_ll_tim.o(.text.LL_TIM_SetEncoderMode), (12 bytes).
    Removing py32f0xx_ll_tim.o(.ARM.exidx.text.LL_TIM_SetEncoderMode), (8 bytes).
    Removing py32f0xx_ll_tim.o(.text.LL_TIM_HALLSENSOR_StructInit), (12 bytes).
    Removing py32f0xx_ll_tim.o(.ARM.exidx.text.LL_TIM_HALLSENSOR_StructInit), (8 bytes).
    Removing py32f0xx_ll_tim.o(.text.LL_TIM_HALLSENSOR_Init), (88 bytes).
    Removing py32f0xx_ll_tim.o(.ARM.exidx.text.LL_TIM_HALLSENSOR_Init), (8 bytes).
    Removing py32f0xx_ll_tim.o(.ARM.exidx.text.LL_TIM_OC_SetCompareCH2), (8 bytes).
    Removing py32f0xx_ll_tim.o(.text.LL_TIM_BDTR_StructInit), (18 bytes).
    Removing py32f0xx_ll_tim.o(.ARM.exidx.text.LL_TIM_BDTR_StructInit), (8 bytes).
    Removing py32f0xx_ll_tim.o(.text.LL_TIM_BDTR_Init), (64 bytes).
    Removing py32f0xx_ll_tim.o(.ARM.exidx.text.LL_TIM_BDTR_Init), (8 bytes).
    Removing py32f0xx_ll_tim.o(.ARM.exidx.text.LL_TIM_OC_SetCompareCH1), (8 bytes).
    Removing py32f0xx_ll_tim.o(.ARM.exidx.text.LL_TIM_OC_SetCompareCH3), (8 bytes).
    Removing py32f0xx_ll_tim.o(.ARM.exidx.text.LL_TIM_OC_SetCompareCH4), (8 bytes).
    Removing py32f0xx_ll_utils.o(.text), (0 bytes).
    Removing py32f0xx_ll_utils.o(.text.LL_Init1msTick), (8 bytes).
    Removing py32f0xx_ll_utils.o(.ARM.exidx.text.LL_Init1msTick), (8 bytes).
    Removing py32f0xx_ll_utils.o(.text.LL_InitTick), (32 bytes).
    Removing py32f0xx_ll_utils.o(.ARM.exidx.text.LL_InitTick), (8 bytes).
    Removing py32f0xx_ll_utils.o(.ARM.exidx.text.LL_mDelay), (8 bytes).
    Removing py32f0xx_ll_utils.o(.ARM.exidx.text.LL_SetSystemCoreClock), (8 bytes).
    Removing py32f0xx_ll_utils.o(.text.LL_PLL_ConfigSystemClock_HSI), (88 bytes).
    Removing py32f0xx_ll_utils.o(.ARM.exidx.text.LL_PLL_ConfigSystemClock_HSI), (8 bytes).
    Removing py32f0xx_ll_utils.o(.text.UTILS_PLL_IsBusy), (12 bytes).
    Removing py32f0xx_ll_utils.o(.ARM.exidx.text.UTILS_PLL_IsBusy), (8 bytes).
    Removing py32f0xx_ll_utils.o(.text.LL_RCC_HSI_GetFreq), (24 bytes).
    Removing py32f0xx_ll_utils.o(.ARM.exidx.text.LL_RCC_HSI_GetFreq), (8 bytes).
    Removing py32f0xx_ll_utils.o(.text.LL_RCC_HSI_IsReady), (16 bytes).
    Removing py32f0xx_ll_utils.o(.ARM.exidx.text.LL_RCC_HSI_IsReady), (8 bytes).
    Removing py32f0xx_ll_utils.o(.text.LL_RCC_HSI_Enable), (20 bytes).
    Removing py32f0xx_ll_utils.o(.ARM.exidx.text.LL_RCC_HSI_Enable), (8 bytes).
    Removing py32f0xx_ll_utils.o(.text.LL_RCC_PLL_SetMainSource), (20 bytes).
    Removing py32f0xx_ll_utils.o(.ARM.exidx.text.LL_RCC_PLL_SetMainSource), (8 bytes).
    Removing py32f0xx_ll_utils.o(.text.UTILS_EnablePLLAndSwitchSystem), (128 bytes).
    Removing py32f0xx_ll_utils.o(.ARM.exidx.text.UTILS_EnablePLLAndSwitchSystem), (8 bytes).
    Removing py32f0xx_ll_utils.o(.text.LL_PLL_ConfigSystemClock_HSE), (100 bytes).
    Removing py32f0xx_ll_utils.o(.ARM.exidx.text.LL_PLL_ConfigSystemClock_HSE), (8 bytes).
    Removing py32f0xx_ll_utils.o(.text.LL_RCC_HSE_IsReady), (16 bytes).
    Removing py32f0xx_ll_utils.o(.ARM.exidx.text.LL_RCC_HSE_IsReady), (8 bytes).
    Removing py32f0xx_ll_utils.o(.text.LL_RCC_HSE_SetFreqRegion), (16 bytes).
    Removing py32f0xx_ll_utils.o(.ARM.exidx.text.LL_RCC_HSE_SetFreqRegion), (8 bytes).
    Removing py32f0xx_ll_utils.o(.text.LL_RCC_HSE_EnableBypass), (20 bytes).
    Removing py32f0xx_ll_utils.o(.ARM.exidx.text.LL_RCC_HSE_EnableBypass), (8 bytes).
    Removing py32f0xx_ll_utils.o(.text.LL_RCC_HSE_DisableBypass), (20 bytes).
    Removing py32f0xx_ll_utils.o(.ARM.exidx.text.LL_RCC_HSE_DisableBypass), (8 bytes).
    Removing py32f0xx_ll_utils.o(.text.LL_RCC_HSE_Enable), (20 bytes).
    Removing py32f0xx_ll_utils.o(.ARM.exidx.text.LL_RCC_HSE_Enable), (8 bytes).
    Removing py32f0xx_ll_utils.o(.text.LL_SetFlashLatency), (68 bytes).
    Removing py32f0xx_ll_utils.o(.ARM.exidx.text.LL_SetFlashLatency), (8 bytes).
    Removing py32f0xx_ll_utils.o(.text.LL_FLASH_SetLatency), (20 bytes).
    Removing py32f0xx_ll_utils.o(.ARM.exidx.text.LL_FLASH_SetLatency), (8 bytes).
    Removing py32f0xx_ll_utils.o(.text.LL_FLASH_GetLatency), (16 bytes).
    Removing py32f0xx_ll_utils.o(.ARM.exidx.text.LL_FLASH_GetLatency), (8 bytes).
    Removing py32f0xx_ll_utils.o(.text.LL_RCC_PLL_IsReady), (16 bytes).
    Removing py32f0xx_ll_utils.o(.ARM.exidx.text.LL_RCC_PLL_IsReady), (8 bytes).
    Removing py32f0xx_ll_utils.o(.text.LL_RCC_PLL_Enable), (20 bytes).
    Removing py32f0xx_ll_utils.o(.ARM.exidx.text.LL_RCC_PLL_Enable), (8 bytes).
    Removing py32f0xx_ll_utils.o(.text.LL_RCC_SetAHBPrescaler), (20 bytes).
    Removing py32f0xx_ll_utils.o(.ARM.exidx.text.LL_RCC_SetAHBPrescaler), (8 bytes).
    Removing py32f0xx_ll_utils.o(.text.LL_RCC_SetSysClkSource), (20 bytes).
    Removing py32f0xx_ll_utils.o(.ARM.exidx.text.LL_RCC_SetSysClkSource), (8 bytes).
    Removing py32f0xx_ll_utils.o(.text.LL_RCC_GetSysClkSource), (16 bytes).
    Removing py32f0xx_ll_utils.o(.ARM.exidx.text.LL_RCC_GetSysClkSource), (8 bytes).
    Removing py32f0xx_ll_utils.o(.text.LL_RCC_SetAPB1Prescaler), (20 bytes).
    Removing py32f0xx_ll_utils.o(.ARM.exidx.text.LL_RCC_SetAPB1Prescaler), (8 bytes).
    Removing py32f0xx_bsp_exti.o(.text), (0 bytes).
    Removing py32f0xx_bsp_exti.o(.ARM.exidx.text.BSP_EXTI_Config), (8 bytes).
    Removing py32f0xx_bsp_exti.o(.ARM.exidx.text.LL_EXTI_SetEXTISource), (8 bytes).
    Removing py32f0xx_bsp_exti.o(.ARM.exidx.text.__NVIC_SetPriority), (8 bytes).
    Removing py32f0xx_bsp_exti.o(.ARM.exidx.text.__NVIC_EnableIRQ), (8 bytes).
    Removing py32f0xx_bsp_exti.o(.ARM.exidx.text.EXTI4_15_IRQHandler), (8 bytes).
    Removing py32f0xx_bsp_exti.o(.ARM.exidx.text.LL_EXTI_IsActiveFlag), (8 bytes).
    Removing py32f0xx_bsp_exti.o(.ARM.exidx.text.LL_EXTI_ClearFlag), (8 bytes).
    Removing py32f0xx_bsp_exti.o(.ARM.exidx.text.EXTI2_3_IRQHandler), (8 bytes).
    Removing py32f0xx_bsp_gpio.o(.text), (0 bytes).
    Removing py32f0xx_bsp_gpio.o(.ARM.exidx.text.BSP_GPIO_Config), (8 bytes).
    Removing py32f0xx_bsp_gpio.o(.ARM.exidx.text.LL_IOP_GRP1_EnableClock), (8 bytes).
    Removing py32f0xx_bsp_gpio.o(.ARM.exidx.text.LL_GPIO_ResetOutputPin), (8 bytes).
    Removing py32f0xx_bsp_i2c.o(.text), (0 bytes).
    Removing py32f0xx_bsp_i2c.o(.ARM.exidx.text.BSP_I2C_Config), (8 bytes).
    Removing py32f0xx_bsp_i2c.o(.ARM.exidx.text.I2C_Unlock), (8 bytes).
    Removing py32f0xx_bsp_i2c.o(.ARM.exidx.text.LL_APB1_GRP1_EnableClock), (8 bytes).
    Removing py32f0xx_bsp_i2c.o(.ARM.exidx.text.LL_APB1_GRP1_ForceReset), (8 bytes).
    Removing py32f0xx_bsp_i2c.o(.ARM.exidx.text.LL_APB1_GRP1_ReleaseReset), (8 bytes).
    Removing py32f0xx_bsp_i2c.o(.ARM.exidx.text.LL_I2C_EnableReset), (8 bytes).
    Removing py32f0xx_bsp_i2c.o(.ARM.exidx.text.LL_I2C_DisableReset), (8 bytes).
    Removing py32f0xx_bsp_i2c.o(.ARM.exidx.text.__NVIC_SetPriority), (8 bytes).
    Removing py32f0xx_bsp_i2c.o(.ARM.exidx.text.__NVIC_EnableIRQ), (8 bytes).
    Removing py32f0xx_bsp_i2c.o(.ARM.exidx.text.LL_I2C_EnableIT_ERR), (8 bytes).
    Removing py32f0xx_bsp_i2c.o(.ARM.exidx.text.LL_I2C_DisableIT_BUF), (8 bytes).
    Removing py32f0xx_bsp_i2c.o(.ARM.exidx.text.LL_I2C_DisableIT_EVT), (8 bytes).
    Removing py32f0xx_bsp_i2c.o(.text.APP_I2C_TestAddress), (84 bytes).
    Removing py32f0xx_bsp_i2c.o(.ARM.exidx.text.APP_I2C_TestAddress), (8 bytes).
    Removing py32f0xx_bsp_i2c.o(.ARM.exidx.text.LL_I2C_IsActiveFlag_BUSY), (8 bytes).
    Removing py32f0xx_bsp_i2c.o(.ARM.exidx.text.LL_I2C_DisableBitPOS), (8 bytes).
    Removing py32f0xx_bsp_i2c.o(.ARM.exidx.text.LL_I2C_GenerateStartCondition), (8 bytes).
    Removing py32f0xx_bsp_i2c.o(.ARM.exidx.text.LL_I2C_IsActiveFlag_SB), (8 bytes).
    Removing py32f0xx_bsp_i2c.o(.ARM.exidx.text.LL_I2C_TransmitData8), (8 bytes).
    Removing py32f0xx_bsp_i2c.o(.ARM.exidx.text.LL_I2C_IsActiveFlag_ADDR), (8 bytes).
    Removing py32f0xx_bsp_i2c.o(.ARM.exidx.text.LL_I2C_GenerateStopCondition), (8 bytes).
    Removing py32f0xx_bsp_i2c.o(.ARM.exidx.text.LL_I2C_ClearFlag_ADDR), (8 bytes).
    Removing py32f0xx_bsp_i2c.o(.text.APP_I2C_Transmit), (144 bytes).
    Removing py32f0xx_bsp_i2c.o(.ARM.exidx.text.APP_I2C_Transmit), (8 bytes).
    Removing py32f0xx_bsp_i2c.o(.ARM.exidx.text.LL_I2C_IsActiveFlag_TXE), (8 bytes).
    Removing py32f0xx_bsp_i2c.o(.ARM.exidx.text.LL_I2C_IsActiveFlag_BTF), (8 bytes).
    Removing py32f0xx_bsp_i2c.o(.text.APP_I2C_Receive), (396 bytes).
    Removing py32f0xx_bsp_i2c.o(.ARM.exidx.text.APP_I2C_Receive), (8 bytes).
    Removing py32f0xx_bsp_i2c.o(.ARM.exidx.text.LL_I2C_AcknowledgeNextData), (8 bytes).
    Removing py32f0xx_bsp_i2c.o(.text.LL_I2C_EnableBitPOS), (20 bytes).
    Removing py32f0xx_bsp_i2c.o(.ARM.exidx.text.LL_I2C_EnableBitPOS), (8 bytes).
    Removing py32f0xx_bsp_i2c.o(.ARM.exidx.text.LL_I2C_IsActiveFlag_RXNE), (8 bytes).
    Removing py32f0xx_bsp_i2c.o(.ARM.exidx.text.LL_I2C_ReceiveData8), (8 bytes).
    Removing py32f0xx_bsp_i2c.o(.ARM.exidx.text.LL_GPIO_ResetOutputPin), (8 bytes).
    Removing py32f0xx_bsp_i2c.o(.ARM.exidx.text.LL_GPIO_SetOutputPin), (8 bytes).
    Removing py32f0xx_bsp_i2c.o(.ARM.exidx.text.LL_GPIO_IsInputPinSet), (8 bytes).
    Removing py32f0xx_bsp_i2c.o(.ARM.exidx.text.I2C_Diagnosis), (8 bytes).
    Removing py32f0xx_bsp_i2c.o(.text.thread_i2c_wdt), (92 bytes).
    Removing py32f0xx_bsp_i2c.o(.ARM.exidx.text.thread_i2c_wdt), (8 bytes).
    Removing py32f0xx_bsp_i2c.o(.ARM.exidx.text.ASYNC_I2C_Transmit), (8 bytes).
    Removing py32f0xx_bsp_i2c.o(.ARM.exidx.text.LL_I2C_EnableIT_TX), (8 bytes).
    Removing py32f0xx_bsp_i2c.o(.ARM.exidx.text.ASYNC_I2C_Receive), (8 bytes).
    Removing py32f0xx_bsp_i2c.o(.ARM.exidx.text.I2C1_IRQHandler), (8 bytes).
    Removing py32f0xx_bsp_i2c.o(.ARM.exidx.text.LL_I2C_DisableIT_RX), (8 bytes).
    Removing py32f0xx_bsp_i2c.o(.ARM.exidx.text.LL_I2C_DisableIT_TX), (8 bytes).
    Removing py32f0xx_bsp_i2c.o(.ARM.exidx.text.LL_I2C_EnableIT_RX), (8 bytes).
    Removing py32f0xx_bsp_i2c.o(.ARM.exidx.text.LL_I2C_IsActiveFlag_AF), (8 bytes).
    Removing py32f0xx_bsp_i2c.o(.ARM.exidx.text.LL_I2C_ClearFlag_AF), (8 bytes).
    Removing py32f0xx_bsp_i2c.o(.ARM.exidx.text.LL_I2C_IsActiveFlag_BERR), (8 bytes).
    Removing py32f0xx_bsp_i2c.o(.ARM.exidx.text.LL_I2C_ClearFlag_BERR), (8 bytes).
    Removing py32f0xx_bsp_pwr.o(.text), (0 bytes).
    Removing py32f0xx_bsp_pwr.o(.ARM.exidx.text.BSP_PWR_Config), (8 bytes).
    Removing py32f0xx_bsp_pwr.o(.ARM.exidx.text.LL_LPM_DisableEventOnPend), (8 bytes).
    Removing py32f0xx_bsp_pwr.o(.ARM.exidx.text.LL_PWR_SetRegulVoltageScaling), (8 bytes).
    Removing py32f0xx_bsp_pwr.o(.ARM.exidx.text.LL_PWR_EnableLowPowerRunMode), (8 bytes).
    Removing py32f0xx_bsp_pwr.o(.ARM.exidx.text.LL_LPM_DisableSleepOnExit), (8 bytes).
    Removing py32f0xx_bsp_pwr.o(.ARM.exidx.text.LL_LPM_EnableSleep), (8 bytes).
    Removing py32f0xx_bsp_rcc.o(.text), (0 bytes).
    Removing py32f0xx_bsp_rcc.o(.ARM.exidx.text.BSP_SystemClockConfig), (8 bytes).
    Removing py32f0xx_bsp_rcc.o(.ARM.exidx.text.LL_APB1_GRP2_EnableClock), (8 bytes).
    Removing py32f0xx_bsp_rcc.o(.ARM.exidx.text.LL_APB1_GRP1_EnableClock), (8 bytes).
    Removing py32f0xx_bsp_rcc.o(.ARM.exidx.text.LL_RCC_HSI_Enable), (8 bytes).
    Removing py32f0xx_bsp_rcc.o(.ARM.exidx.text.LL_RCC_HSI_SetCalibFreq), (8 bytes).
    Removing py32f0xx_bsp_rcc.o(.ARM.exidx.text.LL_RCC_HSI_IsReady), (8 bytes).
    Removing py32f0xx_bsp_rcc.o(.ARM.exidx.text.LL_RCC_SetAHBPrescaler), (8 bytes).
    Removing py32f0xx_bsp_rcc.o(.ARM.exidx.text.LL_RCC_SetSysClkSource), (8 bytes).
    Removing py32f0xx_bsp_rcc.o(.ARM.exidx.text.LL_RCC_GetSysClkSource), (8 bytes).
    Removing py32f0xx_bsp_rcc.o(.ARM.exidx.text.LL_RCC_SetAPB1Prescaler), (8 bytes).
    Removing py32f0xx_bsp_rcc.o(.ARM.exidx.text.LL_InitTick), (8 bytes).
    Removing py32f0xx_bsp_rcc.o(.ARM.exidx.text.LL_SYSTICK_EnableIT), (8 bytes).
    Removing py32f0xx_bsp_rcc.o(.ARM.exidx.text.LL_FLASH_SetLatency), (8 bytes).
    Removing py32f0xx_bsp_rcc.o(.ARM.exidx.text.LL_RCC_LSE_Disable), (8 bytes).
    Removing py32f0xx_bsp_rcc.o(.ARM.exidx.text.LL_RCC_HSE_Disable), (8 bytes).
    Removing py32f0xx_bsp_rcc.o(.ARM.exidx.text.LL_RCC_LSI_Disable), (8 bytes).
    Removing py32f0xx_bsp_tim.o(.text), (0 bytes).
    Removing py32f0xx_bsp_tim.o(.ARM.exidx.text.BSP_TIM_config), (8 bytes).
    Removing py32f0xx_bsp_tim.o(.ARM.exidx.text.LL_APB1_GRP2_EnableClock), (8 bytes).
    Removing py32f0xx_bsp_tim.o(.ARM.exidx.text.LL_TIM_EnableAllOutputs), (8 bytes).
    Removing py32f0xx_bsp_tim.o(.ARM.exidx.text.LL_TIM_EnableCounter), (8 bytes).
    Removing py32f0xx_bsp_tim.o(.ARM.exidx.text.BSP_PWMChannelConfig), (8 bytes).
    Removing py32f0xx_bsp_tim.o(.ARM.exidx.text.LED_PWM_Set), (8 bytes).
    Removing py32f0xx_bsp_tim.o(.ARM.exidx.text.LL_TIM_OC_SetCompareCH1), (8 bytes).
    Removing py32f0xx_bsp_usart.o(.text), (0 bytes).
    Removing py32f0xx_bsp_usart.o(.ARM.exidx.text.BSP_USART_Config), (8 bytes).
    Removing py32f0xx_bsp_usart.o(.ARM.exidx.text.LL_APB1_GRP2_EnableClock), (8 bytes).
    Removing py32f0xx_bsp_usart.o(.ARM.exidx.text.LL_USART_SetBaudRate), (8 bytes).
    Removing py32f0xx_bsp_usart.o(.ARM.exidx.text.LL_USART_SetDataWidth), (8 bytes).
    Removing py32f0xx_bsp_usart.o(.ARM.exidx.text.LL_USART_SetStopBitsLength), (8 bytes).
    Removing py32f0xx_bsp_usart.o(.ARM.exidx.text.LL_USART_SetParity), (8 bytes).
    Removing py32f0xx_bsp_usart.o(.ARM.exidx.text.LL_USART_SetHWFlowCtrl), (8 bytes).
    Removing py32f0xx_bsp_usart.o(.ARM.exidx.text.LL_USART_SetTransferDirection), (8 bytes).
    Removing py32f0xx_bsp_usart.o(.ARM.exidx.text.LL_USART_Enable), (8 bytes).
    Removing py32f0xx_bsp_usart.o(.ARM.exidx.text.LL_USART_ClearFlag_TC), (8 bytes).
    Removing py32f0xx_bsp_usart.o(.ARM.exidx.text.LL_IOP_GRP1_EnableClock), (8 bytes).
    Removing py32f0xx_bsp_usart.o(.ARM.exidx.text.LL_GPIO_SetPinMode), (8 bytes).
    Removing py32f0xx_bsp_usart.o(.ARM.exidx.text.LL_GPIO_SetPinSpeed), (8 bytes).
    Removing py32f0xx_bsp_usart.o(.ARM.exidx.text.LL_GPIO_SetPinPull), (8 bytes).
    Removing py32f0xx_bsp_usart.o(.ARM.exidx.text.LL_GPIO_SetAFPin_0_7), (8 bytes).
    Removing py32f0xx_bsp_usart.o(.ARM.exidx.text.LL_USART_EnableIT_PE), (8 bytes).
    Removing py32f0xx_bsp_usart.o(.ARM.exidx.text.LL_USART_EnableIT_ERROR), (8 bytes).
    Removing py32f0xx_bsp_usart.o(.ARM.exidx.text.LL_USART_EnableIT_RXNE), (8 bytes).
    Removing py32f0xx_bsp_usart.o(.ARM.exidx.text.__NVIC_SetPriority), (8 bytes).
    Removing py32f0xx_bsp_usart.o(.ARM.exidx.text.__NVIC_EnableIRQ), (8 bytes).
    Removing py32f0xx_bsp_usart.o(.ARM.exidx.text.USART_bufsend), (8 bytes).
    Removing py32f0xx_bsp_usart.o(.ARM.exidx.text.LL_USART_IsEnabledIT_TXE), (8 bytes).
    Removing py32f0xx_bsp_usart.o(.ARM.exidx.text.LL_USART_TransmitData8), (8 bytes).
    Removing py32f0xx_bsp_usart.o(.ARM.exidx.text.LL_USART_EnableIT_TXE), (8 bytes).
    Removing py32f0xx_bsp_usart.o(.text.USART_send_a_byte), (100 bytes).
    Removing py32f0xx_bsp_usart.o(.ARM.exidx.text.USART_send_a_byte), (8 bytes).
    Removing py32f0xx_bsp_usart.o(.ARM.exidx.text.USART_getvalidnum), (8 bytes).
    Removing py32f0xx_bsp_usart.o(.text.USART_read_a_byte), (64 bytes).
    Removing py32f0xx_bsp_usart.o(.ARM.exidx.text.USART_read_a_byte), (8 bytes).
    Removing py32f0xx_bsp_usart.o(.ARM.exidx.text.USART_bufread), (8 bytes).
    Removing py32f0xx_bsp_usart.o(.ARM.exidx.text.USART1_IRQHandler), (8 bytes).
    Removing py32f0xx_bsp_usart.o(.ARM.exidx.text.LL_USART_IsActiveFlag_TXE), (8 bytes).
    Removing py32f0xx_bsp_usart.o(.ARM.exidx.text.LL_USART_DisableIT_TXE), (8 bytes).
    Removing py32f0xx_bsp_usart.o(.ARM.exidx.text.LL_USART_IsActiveFlag_RXNE), (8 bytes).
    Removing py32f0xx_bsp_usart.o(.ARM.exidx.text.LL_USART_ReceiveData8), (8 bytes).
    Removing py32f0xx_bsp_usart.o(.ARM.exidx.text.LL_USART_IsActiveFlag_PE), (8 bytes).
    Removing py32f0xx_bsp_usart.o(.ARM.exidx.text.LL_USART_ClearFlag_PE), (8 bytes).
    Removing py32f0xx_bsp_usart.o(.ARM.exidx.text.LL_USART_IsActiveFlag_FE), (8 bytes).
    Removing py32f0xx_bsp_usart.o(.ARM.exidx.text.LL_USART_ClearFlag_FE), (8 bytes).
    Removing py32f0xx_bsp_usart.o(.ARM.exidx.text.LL_USART_IsActiveFlag_ORE), (8 bytes).
    Removing py32f0xx_bsp_usart.o(.ARM.exidx.text.LL_USART_ClearFlag_ORE), (8 bytes).
    Removing py32f0xx_bsp_usart.o(.ARM.exidx.text.LL_USART_IsActiveFlag_NE), (8 bytes).
    Removing py32f0xx_bsp_usart.o(.ARM.exidx.text.LL_USART_ClearFlag_NE), (8 bytes).
    Removing py32f0xx_bsp_usart.o(.text.BSP_UART_TxChar), (20 bytes).
    Removing py32f0xx_bsp_usart.o(.ARM.exidx.text.BSP_UART_TxChar), (8 bytes).
    Removing py32f0xx_bsp_usart.o(.text.LL_USART_IsActiveFlag_TC), (16 bytes).
    Removing py32f0xx_bsp_usart.o(.ARM.exidx.text.LL_USART_IsActiveFlag_TC), (8 bytes).
    Removing py32f0xx_bsp_usart.o(.text.BSP_UART_TxHex8), (32 bytes).
    Removing py32f0xx_bsp_usart.o(.ARM.exidx.text.BSP_UART_TxHex8), (8 bytes).
    Removing py32f0xx_bsp_usart.o(.text.BSP_UART_TxHex16), (52 bytes).
    Removing py32f0xx_bsp_usart.o(.ARM.exidx.text.BSP_UART_TxHex16), (8 bytes).
    Removing py32f0xx_bsp_usart.o(.text.BSP_UART_TxHex32), (92 bytes).
    Removing py32f0xx_bsp_usart.o(.ARM.exidx.text.BSP_UART_TxHex32), (8 bytes).
    Removing py32f0xx_bsp_usart.o(.ARM.exidx.text.uprintf), (8 bytes).
    Removing py32f0xx_bsp_usart.o(.rodata.HEX_TABLE), (16 bytes).
    Removing coroos.o(.text), (0 bytes).
    Removing sw6306.o(.text), (0 bytes).
    Removing sw6306.o(.ARM.exidx.text.SW6306_ByteWrite), (8 bytes).
    Removing sw6306.o(.ARM.exidx.text.SW6306_ByteRead), (8 bytes).
    Removing sw6306.o(.ARM.exidx.text.SW6306_RegsetSwitch), (8 bytes).
    Removing sw6306.o(.ARM.exidx.text.SW6306_ByteModify), (8 bytes).
    Removing sw6306.o(.ARM.exidx.text.SW6306_ADCRead), (8 bytes).
    Removing sw6306.o(.ARM.exidx.text.SW6306_ADCLoad), (8 bytes).
    Removing sw6306.o(.ARM.exidx.text.SW6306_Init), (8 bytes).
    Removing sw6306.o(.ARM.exidx.text.SW6306_ReadVBUS), (8 bytes).
    Removing sw6306.o(.ARM.exidx.text.SW6306_ReadIBUS), (8 bytes).
    Removing sw6306.o(.ARM.exidx.text.SW6306_ReadVBAT), (8 bytes).
    Removing sw6306.o(.ARM.exidx.text.SW6306_ReadIBAT), (8 bytes).
    Removing sw6306.o(.ARM.exidx.text.SW6306_ReadTNTC), (8 bytes).
    Removing sw6306.o(.ARM.exidx.text.SW6306_ReadTCHIP), (8 bytes).
    Removing sw6306.o(.text.SW6306_ReadVNTC), (36 bytes).
    Removing sw6306.o(.ARM.exidx.text.SW6306_ReadVNTC), (8 bytes).
    Removing sw6306.o(.ARM.exidx.text.SW6306_PortStatusLoad), (8 bytes).
    Removing sw6306.o(.ARM.exidx.text.SW6306_IsPortC1ON), (8 bytes).
    Removing sw6306.o(.ARM.exidx.text.SW6306_IsPortC2ON), (8 bytes).
    Removing sw6306.o(.ARM.exidx.text.SW6306_IsPortA1ON), (8 bytes).
    Removing sw6306.o(.ARM.exidx.text.SW6306_IsPortA2ON), (8 bytes).
    Removing sw6306.o(.ARM.exidx.text.SW6306_PowerLoad), (8 bytes).
    Removing sw6306.o(.text.SW6306_ReadIPortLimit), (16 bytes).
    Removing sw6306.o(.ARM.exidx.text.SW6306_ReadIPortLimit), (8 bytes).
    Removing sw6306.o(.text.SW6306_ReadIBattLimit), (16 bytes).
    Removing sw6306.o(.ARM.exidx.text.SW6306_ReadIBattLimit), (8 bytes).
    Removing sw6306.o(.text.SW6306_ReadMaxOutputPower), (12 bytes).
    Removing sw6306.o(.ARM.exidx.text.SW6306_ReadMaxOutputPower), (8 bytes).
    Removing sw6306.o(.text.SW6306_ReadMaxInputPower), (12 bytes).
    Removing sw6306.o(.ARM.exidx.text.SW6306_ReadMaxInputPower), (8 bytes).
    Removing sw6306.o(.ARM.exidx.text.SW6306_StatusLoad), (8 bytes).
    Removing sw6306.o(.text.SW6306_IsLowCurrentMode), (16 bytes).
    Removing sw6306.o(.ARM.exidx.text.SW6306_IsLowCurrentMode), (8 bytes).
    Removing sw6306.o(.text.SW6306_IsMPPTCharging), (16 bytes).
    Removing sw6306.o(.ARM.exidx.text.SW6306_IsMPPTCharging), (8 bytes).
    Removing sw6306.o(.ARM.exidx.text.SW6306_IsCharging), (8 bytes).
    Removing sw6306.o(.ARM.exidx.text.SW6306_IsDischarging), (8 bytes).
    Removing sw6306.o(.ARM.exidx.text.SW6306_IsFullCharged), (8 bytes).
    Removing sw6306.o(.ARM.exidx.text.SW6306_IsBatteryDepleted), (8 bytes).
    Removing sw6306.o(.text.SW6306_IsCapacityLearned), (16 bytes).
    Removing sw6306.o(.ARM.exidx.text.SW6306_IsCapacityLearned), (8 bytes).
    Removing sw6306.o(.text.SW6306_IsErrorinCharging), (16 bytes).
    Removing sw6306.o(.ARM.exidx.text.SW6306_IsErrorinCharging), (8 bytes).
    Removing sw6306.o(.text.SW6306_IsErrorinDischarging), (16 bytes).
    Removing sw6306.o(.ARM.exidx.text.SW6306_IsErrorinDischarging), (8 bytes).
    Removing sw6306.o(.text.SW6306_IsKeyEvent), (16 bytes).
    Removing sw6306.o(.ARM.exidx.text.SW6306_IsKeyEvent), (8 bytes).
    Removing sw6306.o(.text.SW6306_IsSceneChanged), (16 bytes).
    Removing sw6306.o(.ARM.exidx.text.SW6306_IsSceneChanged), (8 bytes).
    Removing sw6306.o(.ARM.exidx.text.SW6306_IsOverHeated), (8 bytes).
    Removing sw6306.o(.text.SW6306_TNTC_Calc), (60 bytes).
    Removing sw6306.o(.ARM.exidx.text.SW6306_TNTC_Calc), (8 bytes).
    Removing sw6306.o(.ARM.exidx.text.SW6306_CapacityLoad), (8 bytes).
    Removing sw6306.o(.ARM.exidx.text.SW6306_ReadCapacity), (8 bytes).
    Removing sw6306.o(.text.SW6306_ReadMaxGuageCap), (36 bytes).
    Removing sw6306.o(.ARM.exidx.text.SW6306_ReadMaxGuageCap), (8 bytes).
    Removing sw6306.o(.text.SW6306_ReadPresentGuageCap), (36 bytes).
    Removing sw6306.o(.ARM.exidx.text.SW6306_ReadPresentGuageCap), (8 bytes).
    Removing sw6306.o(.ARM.exidx.text.SW6306_Click), (8 bytes).
    Removing sw6306.o(.ARM.exidx.text.SW6306_ForceOff), (8 bytes).
    Removing sw6306.o(.ARM.exidx.text.SW6306_Unlock), (8 bytes).
    Removing sw6306.o(.ARM.exidx.text.SW6306_LPSet), (8 bytes).
    Removing sw6306.o(.text.SW6306_WLEDSet), (88 bytes).
    Removing sw6306.o(.ARM.exidx.text.SW6306_WLEDSet), (8 bytes).
    Removing sw6306.o(.text.SW6306_IO1Set), (88 bytes).
    Removing sw6306.o(.ARM.exidx.text.SW6306_IO1Set), (8 bytes).
    Removing sw6306.o(.ARM.exidx.text.SW6306_IsInitialized), (8 bytes).
    Removing sw6306.o(.bss.SW6306_WLEDSet.steps), (1 bytes).
    Removing sw6306.o(.bss.SW6306_IO1Set.steps), (1 bytes).
    Removing dfltui.o(.text), (28 bytes).

541 unused section(s) (total 8490 bytes) removed from the image.

==============================================================================

Image Symbol Table

    Local Symbols

    Symbol Name                              Value     Ov Type        Size  Object(Section)

    ../clib/division.s                       0x00000000   Number         0  aeabi_sdivfast.o ABSOLUTE
    ../clib/division.s                       0x00000000   Number         0  aeabi_sdivfast_div0.o ABSOLUTE
    ../clib/microlib/division.c              0x00000000   Number         0  uidiv.o ABSOLUTE
    ../clib/microlib/division.c              0x00000000   Number         0  uidiv_div0.o ABSOLUTE
    ../clib/microlib/division.c              0x00000000   Number         0  idiv_div0.o ABSOLUTE
    ../clib/microlib/division.c              0x00000000   Number         0  idiv0.o ABSOLUTE
    ../clib/microlib/division.c              0x00000000   Number         0  uldiv.o ABSOLUTE
    ../clib/microlib/init/entry.s            0x00000000   Number         0  entry.o ABSOLUTE
    ../clib/microlib/init/entry.s            0x00000000   Number         0  entry2.o ABSOLUTE
    ../clib/microlib/init/entry.s            0x00000000   Number         0  entry5.o ABSOLUTE
    ../clib/microlib/init/entry.s            0x00000000   Number         0  entry7a.o ABSOLUTE
    ../clib/microlib/init/entry.s            0x00000000   Number         0  entry7b.o ABSOLUTE
    ../clib/microlib/init/entry.s            0x00000000   Number         0  entry8a.o ABSOLUTE
    ../clib/microlib/init/entry.s            0x00000000   Number         0  entry8b.o ABSOLUTE
    ../clib/microlib/init/entry.s            0x00000000   Number         0  entry9a.o ABSOLUTE
    ../clib/microlib/init/entry.s            0x00000000   Number         0  entry9b.o ABSOLUTE
    ../clib/microlib/init/entry.s            0x00000000   Number         0  entry10a.o ABSOLUTE
    ../clib/microlib/init/entry.s            0x00000000   Number         0  entry10b.o ABSOLUTE
    ../clib/microlib/init/entry.s            0x00000000   Number         0  entry11a.o ABSOLUTE
    ../clib/microlib/init/entry.s            0x00000000   Number         0  entry11b.o ABSOLUTE
    ../clib/microlib/longlong.c              0x00000000   Number         0  llshl.o ABSOLUTE
    ../clib/microlib/longlong.c              0x00000000   Number         0  llushr.o ABSOLUTE
    ../clib/microlib/longlong.c              0x00000000   Number         0  llsshr.o ABSOLUTE
    ../clib/microlib/printf/printf.c         0x00000000   Number         0  printfa.o ABSOLUTE
    ../clib/microlib/stdio/fputc.c           0x00000000   Number         0  fputc.o ABSOLUTE
    ../clib/microlib/stdio/fputc.c           0x00000000   Number         0  fputc_h.o ABSOLUTE
    ../clib/microlib/stdio/semi.s            0x00000000   Number         0  semi.o ABSOLUTE
    ../clib/microlib/stdio/streams.c         0x00000000   Number         0  stdout.o ABSOLUTE
    ../clib/microlib/string/memset.c         0x00000000   Number         0  memseta.o ABSOLUTE
    ../clib/microlib/stubs.s                 0x00000000   Number         0  iusefp.o ABSOLUTE
    ../clib/microlib/stubs.s                 0x00000000   Number         0  iusesemip.o ABSOLUTE
    ../fplib/microlib/d2f.c                  0x00000000   Number         0  d2f.o ABSOLUTE
    ../fplib/microlib/f2d.c                  0x00000000   Number         0  f2d.o ABSOLUTE
    ../fplib/microlib/fpadd.c                0x00000000   Number         0  dadd.o ABSOLUTE
    ../fplib/microlib/fpdiv.c                0x00000000   Number         0  ddiv.o ABSOLUTE
    ../fplib/microlib/fpepilogue.c           0x00000000   Number         0  fepilogue.o ABSOLUTE
    ../fplib/microlib/fpepilogue.c           0x00000000   Number         0  depilogue.o ABSOLUTE
    ../fplib/microlib/fpfix.c                0x00000000   Number         0  dfixul.o ABSOLUTE
    ../fplib/microlib/fpflt.c                0x00000000   Number         0  fflti.o ABSOLUTE
    ../fplib/microlib/fpflt.c                0x00000000   Number         0  dfltui.o ABSOLUTE
    ../fplib/microlib/fpmul.c                0x00000000   Number         0  dmul.o ABSOLUTE
    bsp_py32f030x6.c                         0x00000000   Number         0  bsp_py32f030x6.o ABSOLUTE
    cdrcmple.s                               0x00000000   Number         0  cdrcmple.o ABSOLUTE
    coroOS.c                                 0x00000000   Number         0  coroos.o ABSOLUTE
    dc.s                                     0x00000000   Number         0  dc.o ABSOLUTE
    debounce_key.c                           0x00000000   Number         0  debounce_key.o ABSOLUTE
    handlers.s                               0x00000000   Number         0  handlers.o ABSOLUTE
    init.s                                   0x00000000   Number         0  init.o ABSOLUTE
    main.c                                   0x00000000   Number         0  main.o ABSOLUTE
    py32f0xx_bsp_exti.c                      0x00000000   Number         0  py32f0xx_bsp_exti.o ABSOLUTE
    py32f0xx_bsp_gpio.c                      0x00000000   Number         0  py32f0xx_bsp_gpio.o ABSOLUTE
    py32f0xx_bsp_i2c.c                       0x00000000   Number         0  py32f0xx_bsp_i2c.o ABSOLUTE
    py32f0xx_bsp_pwr.c                       0x00000000   Number         0  py32f0xx_bsp_pwr.o ABSOLUTE
    py32f0xx_bsp_rcc.c                       0x00000000   Number         0  py32f0xx_bsp_rcc.o ABSOLUTE
    py32f0xx_bsp_tim.c                       0x00000000   Number         0  py32f0xx_bsp_tim.o ABSOLUTE
    py32f0xx_bsp_usart.c                     0x00000000   Number         0  py32f0xx_bsp_usart.o ABSOLUTE
    py32f0xx_it.c                            0x00000000   Number         0  py32f0xx_it.o ABSOLUTE
    py32f0xx_ll_adc.c                        0x00000000   Number         0  py32f0xx_ll_adc.o ABSOLUTE
    py32f0xx_ll_dma.c                        0x00000000   Number         0  py32f0xx_ll_dma.o ABSOLUTE
    py32f0xx_ll_exti.c                       0x00000000   Number         0  py32f0xx_ll_exti.o ABSOLUTE
    py32f0xx_ll_gpio.c                       0x00000000   Number         0  py32f0xx_ll_gpio.o ABSOLUTE
    py32f0xx_ll_i2c.c                        0x00000000   Number         0  py32f0xx_ll_i2c.o ABSOLUTE
    py32f0xx_ll_lptim.c                      0x00000000   Number         0  py32f0xx_ll_lptim.o ABSOLUTE
    py32f0xx_ll_pwr.c                        0x00000000   Number         0  py32f0xx_ll_pwr.o ABSOLUTE
    py32f0xx_ll_rcc.c                        0x00000000   Number         0  py32f0xx_ll_rcc.o ABSOLUTE
    py32f0xx_ll_tim.c                        0x00000000   Number         0  py32f0xx_ll_tim.o ABSOLUTE
    py32f0xx_ll_utils.c                      0x00000000   Number         0  py32f0xx_ll_utils.o ABSOLUTE
    startup_py32f030xx.s                     0x00000000   Number         0  startup_py32f030xx.o ABSOLUTE
    sw6306.c                                 0x00000000   Number         0  sw6306.o ABSOLUTE
    system_py32f0xx.c                        0x00000000   Number         0  system_py32f0xx.o ABSOLUTE
    RESET                                    0x08000000   Section      192  startup_py32f030xx.o(RESET)
    .ARM.Collect$$$$00000000                 0x080000c0   Section        0  entry.o(.ARM.Collect$$$$00000000)
    .ARM.Collect$$$$00000001                 0x080000c0   Section        4  entry2.o(.ARM.Collect$$$$00000001)
    .ARM.Collect$$$$00000004                 0x080000c4   Section        4  entry5.o(.ARM.Collect$$$$00000004)
    .ARM.Collect$$$$00000008                 0x080000c8   Section        0  entry7b.o(.ARM.Collect$$$$00000008)
    .ARM.Collect$$$$0000000A                 0x080000c8   Section        0  entry8b.o(.ARM.Collect$$$$0000000A)
    .ARM.Collect$$$$0000000B                 0x080000c8   Section        8  entry9a.o(.ARM.Collect$$$$0000000B)
    __lit__00000000                          0x080000d0   Data           4  entry2.o(.ARM.Collect$$$$00002712)
    .ARM.Collect$$$$0000000D                 0x080000d0   Section        0  entry10a.o(.ARM.Collect$$$$0000000D)
    .ARM.Collect$$$$0000000F                 0x080000d0   Section        0  entry11a.o(.ARM.Collect$$$$0000000F)
    .ARM.Collect$$$$00002712                 0x080000d0   Section        4  entry2.o(.ARM.Collect$$$$00002712)
    .text                                    0x080000d4   Section       28  startup_py32f030xx.o(.text)
    .text                                    0x080000f0   Section        0  dmul.o(.text)
    .text                                    0x080001c0   Section        0  ddiv.o(.text)
    .text                                    0x080002b0   Section        0  fflti.o(.text)
    .text                                    0x080002c6   Section        0  f2d.o(.text)
    .text                                    0x080002ee   Section        0  d2f.o(.text)
    .text                                    0x08000326   Section        0  uidiv_div0.o(.text)
    .text                                    0x08000364   Section        0  uldiv.o(.text)
    .text                                    0x080003c4   Section        0  iusefp.o(.text)
    .text                                    0x080003c4   Section        0  fepilogue.o(.text)
    .text                                    0x08000446   Section        0  depilogue.o(.text)
    .text                                    0x08000504   Section        0  dadd.o(.text)
    .text                                    0x08000668   Section        0  dfixul.o(.text)
    .text                                    0x080006a8   Section       40  cdrcmple.o(.text)
    .text                                    0x080006d0   Section       36  init.o(.text)
    .text                                    0x080006f4   Section        0  llshl.o(.text)
    .text                                    0x08000714   Section        0  llushr.o(.text)
    .text                                    0x08000736   Section        0  llsshr.o(.text)
    [Anonymous Symbol]                       0x0800075c   Section        0  system_py32f0xx.o(.text.$Sub$$main)
    __arm_cp.2_0                             0x08000780   Number         4  system_py32f0xx.o(.text.$Sub$$main)
    __arm_cp.2_1                             0x08000784   Number         4  system_py32f0xx.o(.text.$Sub$$main)
    [Anonymous Symbol]                       0x08000788   Section        0  py32f0xx_bsp_i2c.o(.text.ASYNC_I2C_Receive)
    [Anonymous Symbol]                       0x080007e4   Section        0  py32f0xx_bsp_i2c.o(.text.ASYNC_I2C_Transmit)
    __arm_cp.34_0                            0x0800083c   Number         4  py32f0xx_bsp_i2c.o(.text.ASYNC_I2C_Transmit)
    __arm_cp.34_1                            0x08000840   Number         4  py32f0xx_bsp_i2c.o(.text.ASYNC_I2C_Transmit)
    __arm_cp.34_2                            0x08000844   Number         4  py32f0xx_bsp_i2c.o(.text.ASYNC_I2C_Transmit)
    [Anonymous Symbol]                       0x08000848   Section        0  py32f0xx_bsp_exti.o(.text.BSP_EXTI_Config)
    __arm_cp.0_0                             0x080008a0   Number         4  py32f0xx_bsp_exti.o(.text.BSP_EXTI_Config)
    [Anonymous Symbol]                       0x080008a4   Section        0  py32f0xx_bsp_gpio.o(.text.BSP_GPIO_Config)
    [Anonymous Symbol]                       0x08000924   Section        0  py32f0xx_bsp_i2c.o(.text.BSP_I2C_Config)
    __arm_cp.0_0                             0x080009a0   Number         4  py32f0xx_bsp_i2c.o(.text.BSP_I2C_Config)
    __arm_cp.0_1                             0x080009a4   Number         4  py32f0xx_bsp_i2c.o(.text.BSP_I2C_Config)
    __arm_cp.0_2                             0x080009a8   Number         4  py32f0xx_bsp_i2c.o(.text.BSP_I2C_Config)
    [Anonymous Symbol]                       0x080009ac   Section        0  py32f0xx_bsp_tim.o(.text.BSP_PWMChannelConfig)
    __arm_cp.4_0                             0x080009e4   Number         4  py32f0xx_bsp_tim.o(.text.BSP_PWMChannelConfig)
    [Anonymous Symbol]                       0x080009e8   Section        0  py32f0xx_bsp_pwr.o(.text.BSP_PWR_Config)
    [Anonymous Symbol]                       0x08000a00   Section        0  py32f0xx_bsp_rcc.o(.text.BSP_SystemClockConfig)
    __arm_cp.0_0                             0x08000a5c   Number         4  py32f0xx_bsp_rcc.o(.text.BSP_SystemClockConfig)
    __arm_cp.0_1                             0x08000a60   Number         4  py32f0xx_bsp_rcc.o(.text.BSP_SystemClockConfig)
    __arm_cp.0_2                             0x08000a64   Number         4  py32f0xx_bsp_rcc.o(.text.BSP_SystemClockConfig)
    [Anonymous Symbol]                       0x08000a68   Section        0  py32f0xx_bsp_tim.o(.text.BSP_TIM_config)
    __arm_cp.0_0                             0x08000a9c   Number         4  py32f0xx_bsp_tim.o(.text.BSP_TIM_config)
    __arm_cp.0_1                             0x08000aa0   Number         4  py32f0xx_bsp_tim.o(.text.BSP_TIM_config)
    [Anonymous Symbol]                       0x08000aa4   Section        0  py32f0xx_bsp_usart.o(.text.BSP_USART_Config)
    __arm_cp.0_0                             0x08000b24   Number         4  py32f0xx_bsp_usart.o(.text.BSP_USART_Config)
    [Anonymous Symbol]                       0x08000b28   Section        0  py32f0xx_bsp_exti.o(.text.EXTI2_3_IRQHandler)
    __arm_cp.7_0                             0x08000b4c   Number         4  py32f0xx_bsp_exti.o(.text.EXTI2_3_IRQHandler)
    [Anonymous Symbol]                       0x08000b50   Section        0  py32f0xx_bsp_exti.o(.text.EXTI4_15_IRQHandler)
    __arm_cp.4_0                             0x08000b74   Number         4  py32f0xx_bsp_exti.o(.text.EXTI4_15_IRQHandler)
    __arm_cp.4_1                             0x08000b78   Number         4  py32f0xx_bsp_exti.o(.text.EXTI4_15_IRQHandler)
    [Anonymous Symbol]                       0x08000b7c   Section        0  py32f0xx_it.o(.text.HardFault_Handler)
    [Anonymous Symbol]                       0x08000b80   Section        0  py32f0xx_bsp_i2c.o(.text.I2C1_IRQHandler)
    __arm_cp.37_0                            0x08000dc8   Number         4  py32f0xx_bsp_i2c.o(.text.I2C1_IRQHandler)
    __arm_cp.37_1                            0x08000dcc   Number         4  py32f0xx_bsp_i2c.o(.text.I2C1_IRQHandler)
    [Anonymous Symbol]                       0x08000dd0   Section        0  py32f0xx_bsp_i2c.o(.text.I2C_Diagnosis)
    __arm_cp.32_0                            0x08000de4   Number         4  py32f0xx_bsp_i2c.o(.text.I2C_Diagnosis)
    [Anonymous Symbol]                       0x08000de8   Section        0  py32f0xx_bsp_i2c.o(.text.I2C_Unlock)
    __arm_cp.1_0                             0x08000e60   Number         4  py32f0xx_bsp_i2c.o(.text.I2C_Unlock)
    KEY_GetIO                                0x08000e65   Thumb Code    10  debounce_key.o(.text.KEY_GetIO)
    [Anonymous Symbol]                       0x08000e64   Section        0  debounce_key.o(.text.KEY_GetIO)
    [Anonymous Symbol]                       0x08000e70   Section        0  debounce_key.o(.text.Key_DebounceService_10ms)
    [Anonymous Symbol]                       0x08000e80   Section        0  debounce_key.o(.text.Key_EdgeDetect)
    [Anonymous Symbol]                       0x08000ed8   Section        0  debounce_key.o(.text.Key_Init)
    [Anonymous Symbol]                       0x08000ee8   Section        0  debounce_key.o(.text.Key_Scand)
    __arm_cp.1_0                             0x08000f44   Number         4  debounce_key.o(.text.Key_Scand)
    [Anonymous Symbol]                       0x08000f48   Section        0  py32f0xx_bsp_tim.o(.text.LED_PWM_Set)
    LL_APB1_GRP1_EnableClock                 0x08000f6d   Thumb Code    28  py32f0xx_bsp_i2c.o(.text.LL_APB1_GRP1_EnableClock)
    [Anonymous Symbol]                       0x08000f6c   Section        0  py32f0xx_bsp_i2c.o(.text.LL_APB1_GRP1_EnableClock)
    LL_APB1_GRP1_EnableClock                 0x08000f89   Thumb Code    32  py32f0xx_bsp_rcc.o(.text.LL_APB1_GRP1_EnableClock)
    [Anonymous Symbol]                       0x08000f88   Section        0  py32f0xx_bsp_rcc.o(.text.LL_APB1_GRP1_EnableClock)
    __arm_cp.2_0                             0x08000fa4   Number         4  py32f0xx_bsp_rcc.o(.text.LL_APB1_GRP1_EnableClock)
    LL_APB1_GRP1_ForceReset                  0x08000fa9   Thumb Code    16  py32f0xx_bsp_i2c.o(.text.LL_APB1_GRP1_ForceReset)
    [Anonymous Symbol]                       0x08000fa8   Section        0  py32f0xx_bsp_i2c.o(.text.LL_APB1_GRP1_ForceReset)
    LL_APB1_GRP1_ReleaseReset                0x08000fb9   Thumb Code    20  py32f0xx_bsp_i2c.o(.text.LL_APB1_GRP1_ReleaseReset)
    [Anonymous Symbol]                       0x08000fb8   Section        0  py32f0xx_bsp_i2c.o(.text.LL_APB1_GRP1_ReleaseReset)
    __arm_cp.4_0                             0x08000fc8   Number         4  py32f0xx_bsp_i2c.o(.text.LL_APB1_GRP1_ReleaseReset)
    LL_APB1_GRP2_EnableClock                 0x08000fcd   Thumb Code    24  py32f0xx_bsp_rcc.o(.text.LL_APB1_GRP2_EnableClock)
    [Anonymous Symbol]                       0x08000fcc   Section        0  py32f0xx_bsp_rcc.o(.text.LL_APB1_GRP2_EnableClock)
    LL_APB1_GRP2_EnableClock                 0x08000fe5   Thumb Code    28  py32f0xx_bsp_tim.o(.text.LL_APB1_GRP2_EnableClock)
    [Anonymous Symbol]                       0x08000fe4   Section        0  py32f0xx_bsp_tim.o(.text.LL_APB1_GRP2_EnableClock)
    LL_APB1_GRP2_EnableClock                 0x08001001   Thumb Code    32  py32f0xx_bsp_usart.o(.text.LL_APB1_GRP2_EnableClock)
    [Anonymous Symbol]                       0x08001000   Section        0  py32f0xx_bsp_usart.o(.text.LL_APB1_GRP2_EnableClock)
    __arm_cp.1_0                             0x0800101c   Number         4  py32f0xx_bsp_usart.o(.text.LL_APB1_GRP2_EnableClock)
    LL_EXTI_ClearFlag                        0x08001021   Thumb Code     8  py32f0xx_bsp_exti.o(.text.LL_EXTI_ClearFlag)
    [Anonymous Symbol]                       0x08001020   Section        0  py32f0xx_bsp_exti.o(.text.LL_EXTI_ClearFlag)
    LL_EXTI_DisableEvent                     0x08001029   Thumb Code    12  py32f0xx_ll_exti.o(.text.LL_EXTI_DisableEvent)
    [Anonymous Symbol]                       0x08001028   Section        0  py32f0xx_ll_exti.o(.text.LL_EXTI_DisableEvent)
    LL_EXTI_DisableFallingTrig               0x08001035   Thumb Code    12  py32f0xx_ll_exti.o(.text.LL_EXTI_DisableFallingTrig)
    [Anonymous Symbol]                       0x08001034   Section        0  py32f0xx_ll_exti.o(.text.LL_EXTI_DisableFallingTrig)
    LL_EXTI_DisableIT                        0x08001041   Thumb Code    12  py32f0xx_ll_exti.o(.text.LL_EXTI_DisableIT)
    [Anonymous Symbol]                       0x08001040   Section        0  py32f0xx_ll_exti.o(.text.LL_EXTI_DisableIT)
    LL_EXTI_DisableRisingTrig                0x0800104d   Thumb Code    12  py32f0xx_ll_exti.o(.text.LL_EXTI_DisableRisingTrig)
    [Anonymous Symbol]                       0x0800104c   Section        0  py32f0xx_ll_exti.o(.text.LL_EXTI_DisableRisingTrig)
    LL_EXTI_EnableEvent                      0x08001059   Thumb Code    16  py32f0xx_ll_exti.o(.text.LL_EXTI_EnableEvent)
    [Anonymous Symbol]                       0x08001058   Section        0  py32f0xx_ll_exti.o(.text.LL_EXTI_EnableEvent)
    __arm_cp.5_0                             0x08001064   Number         4  py32f0xx_ll_exti.o(.text.LL_EXTI_EnableEvent)
    LL_EXTI_EnableFallingTrig                0x08001069   Thumb Code    16  py32f0xx_ll_exti.o(.text.LL_EXTI_EnableFallingTrig)
    [Anonymous Symbol]                       0x08001068   Section        0  py32f0xx_ll_exti.o(.text.LL_EXTI_EnableFallingTrig)
    __arm_cp.9_0                             0x08001074   Number         4  py32f0xx_ll_exti.o(.text.LL_EXTI_EnableFallingTrig)
    LL_EXTI_EnableIT                         0x08001079   Thumb Code    16  py32f0xx_ll_exti.o(.text.LL_EXTI_EnableIT)
    [Anonymous Symbol]                       0x08001078   Section        0  py32f0xx_ll_exti.o(.text.LL_EXTI_EnableIT)
    __arm_cp.3_0                             0x08001084   Number         4  py32f0xx_ll_exti.o(.text.LL_EXTI_EnableIT)
    LL_EXTI_EnableRisingTrig                 0x08001089   Thumb Code    16  py32f0xx_ll_exti.o(.text.LL_EXTI_EnableRisingTrig)
    [Anonymous Symbol]                       0x08001088   Section        0  py32f0xx_ll_exti.o(.text.LL_EXTI_EnableRisingTrig)
    __arm_cp.7_0                             0x08001094   Number         4  py32f0xx_ll_exti.o(.text.LL_EXTI_EnableRisingTrig)
    [Anonymous Symbol]                       0x08001098   Section        0  py32f0xx_ll_exti.o(.text.LL_EXTI_Init)
    LL_EXTI_IsActiveFlag                     0x08001131   Thumb Code    20  py32f0xx_bsp_exti.o(.text.LL_EXTI_IsActiveFlag)
    [Anonymous Symbol]                       0x08001130   Section        0  py32f0xx_bsp_exti.o(.text.LL_EXTI_IsActiveFlag)
    __arm_cp.5_0                             0x08001140   Number         4  py32f0xx_bsp_exti.o(.text.LL_EXTI_IsActiveFlag)
    LL_EXTI_SetEXTISource                    0x08001145   Thumb Code    36  py32f0xx_bsp_exti.o(.text.LL_EXTI_SetEXTISource)
    [Anonymous Symbol]                       0x08001144   Section        0  py32f0xx_bsp_exti.o(.text.LL_EXTI_SetEXTISource)
    __arm_cp.1_0                             0x08001164   Number         4  py32f0xx_bsp_exti.o(.text.LL_EXTI_SetEXTISource)
    LL_FLASH_SetLatency                      0x08001169   Thumb Code    16  py32f0xx_bsp_rcc.o(.text.LL_FLASH_SetLatency)
    [Anonymous Symbol]                       0x08001168   Section        0  py32f0xx_bsp_rcc.o(.text.LL_FLASH_SetLatency)
    __arm_cp.12_0                            0x08001174   Number         4  py32f0xx_bsp_rcc.o(.text.LL_FLASH_SetLatency)
    [Anonymous Symbol]                       0x08001178   Section        0  py32f0xx_ll_gpio.o(.text.LL_GPIO_Init)
    LL_GPIO_IsInputPinSet                    0x080011f9   Thumb Code    12  main.o(.text.LL_GPIO_IsInputPinSet)
    [Anonymous Symbol]                       0x080011f8   Section        0  main.o(.text.LL_GPIO_IsInputPinSet)
    LL_GPIO_IsInputPinSet                    0x08001205   Thumb Code    16  debounce_key.o(.text.LL_GPIO_IsInputPinSet)
    [Anonymous Symbol]                       0x08001204   Section        0  debounce_key.o(.text.LL_GPIO_IsInputPinSet)
    __arm_cp.6_0                             0x08001210   Number         4  debounce_key.o(.text.LL_GPIO_IsInputPinSet)
    LL_GPIO_IsInputPinSet                    0x08001215   Thumb Code    16  py32f0xx_bsp_i2c.o(.text.LL_GPIO_IsInputPinSet)
    [Anonymous Symbol]                       0x08001214   Section        0  py32f0xx_bsp_i2c.o(.text.LL_GPIO_IsInputPinSet)
    __arm_cp.31_0                            0x08001220   Number         4  py32f0xx_bsp_i2c.o(.text.LL_GPIO_IsInputPinSet)
    LL_GPIO_ResetOutputPin                   0x08001225   Thumb Code     8  main.o(.text.LL_GPIO_ResetOutputPin)
    [Anonymous Symbol]                       0x08001224   Section        0  main.o(.text.LL_GPIO_ResetOutputPin)
    LL_GPIO_ResetOutputPin                   0x0800122d   Thumb Code    12  py32f0xx_bsp_gpio.o(.text.LL_GPIO_ResetOutputPin)
    [Anonymous Symbol]                       0x0800122c   Section        0  py32f0xx_bsp_gpio.o(.text.LL_GPIO_ResetOutputPin)
    __arm_cp.2_0                             0x08001234   Number         4  py32f0xx_bsp_gpio.o(.text.LL_GPIO_ResetOutputPin)
    LL_GPIO_ResetOutputPin                   0x08001239   Thumb Code    12  py32f0xx_bsp_i2c.o(.text.LL_GPIO_ResetOutputPin)
    [Anonymous Symbol]                       0x08001238   Section        0  py32f0xx_bsp_i2c.o(.text.LL_GPIO_ResetOutputPin)
    __arm_cp.29_0                            0x08001240   Number         4  py32f0xx_bsp_i2c.o(.text.LL_GPIO_ResetOutputPin)
    LL_GPIO_SetAFPin_0_7                     0x08001245   Thumb Code    20  py32f0xx_ll_gpio.o(.text.LL_GPIO_SetAFPin_0_7)
    [Anonymous Symbol]                       0x08001244   Section        0  py32f0xx_ll_gpio.o(.text.LL_GPIO_SetAFPin_0_7)
    LL_GPIO_SetAFPin_0_7                     0x08001259   Thumb Code    24  py32f0xx_bsp_usart.o(.text.LL_GPIO_SetAFPin_0_7)
    [Anonymous Symbol]                       0x08001258   Section        0  py32f0xx_bsp_usart.o(.text.LL_GPIO_SetAFPin_0_7)
    __arm_cp.14_0                            0x0800126c   Number         4  py32f0xx_bsp_usart.o(.text.LL_GPIO_SetAFPin_0_7)
    LL_GPIO_SetAFPin_8_15                    0x08001271   Thumb Code    22  py32f0xx_ll_gpio.o(.text.LL_GPIO_SetAFPin_8_15)
    [Anonymous Symbol]                       0x08001270   Section        0  py32f0xx_ll_gpio.o(.text.LL_GPIO_SetAFPin_8_15)
    LL_GPIO_SetOutputPin                     0x08001289   Thumb Code    12  main.o(.text.LL_GPIO_SetOutputPin)
    [Anonymous Symbol]                       0x08001288   Section        0  main.o(.text.LL_GPIO_SetOutputPin)
    __arm_cp.5_0                             0x08001290   Number         4  main.o(.text.LL_GPIO_SetOutputPin)
    LL_GPIO_SetOutputPin                     0x08001295   Thumb Code    12  py32f0xx_bsp_i2c.o(.text.LL_GPIO_SetOutputPin)
    [Anonymous Symbol]                       0x08001294   Section        0  py32f0xx_bsp_i2c.o(.text.LL_GPIO_SetOutputPin)
    __arm_cp.30_0                            0x0800129c   Number         4  py32f0xx_bsp_i2c.o(.text.LL_GPIO_SetOutputPin)
    LL_GPIO_SetPinMode                       0x080012a1   Thumb Code    18  py32f0xx_ll_gpio.o(.text.LL_GPIO_SetPinMode)
    [Anonymous Symbol]                       0x080012a0   Section        0  py32f0xx_ll_gpio.o(.text.LL_GPIO_SetPinMode)
    LL_GPIO_SetPinMode                       0x080012b3   Thumb Code    22  py32f0xx_bsp_usart.o(.text.LL_GPIO_SetPinMode)
    [Anonymous Symbol]                       0x080012b2   Section        0  py32f0xx_bsp_usart.o(.text.LL_GPIO_SetPinMode)
    LL_GPIO_SetPinOutputType                 0x080012c9   Thumb Code    12  py32f0xx_ll_gpio.o(.text.LL_GPIO_SetPinOutputType)
    [Anonymous Symbol]                       0x080012c8   Section        0  py32f0xx_ll_gpio.o(.text.LL_GPIO_SetPinOutputType)
    LL_GPIO_SetPinPull                       0x080012d5   Thumb Code    18  py32f0xx_ll_gpio.o(.text.LL_GPIO_SetPinPull)
    [Anonymous Symbol]                       0x080012d4   Section        0  py32f0xx_ll_gpio.o(.text.LL_GPIO_SetPinPull)
    LL_GPIO_SetPinPull                       0x080012e9   Thumb Code    24  py32f0xx_bsp_usart.o(.text.LL_GPIO_SetPinPull)
    [Anonymous Symbol]                       0x080012e8   Section        0  py32f0xx_bsp_usart.o(.text.LL_GPIO_SetPinPull)
    __arm_cp.13_0                            0x080012fc   Number         4  py32f0xx_bsp_usart.o(.text.LL_GPIO_SetPinPull)
    LL_GPIO_SetPinSpeed                      0x08001301   Thumb Code    18  py32f0xx_ll_gpio.o(.text.LL_GPIO_SetPinSpeed)
    [Anonymous Symbol]                       0x08001300   Section        0  py32f0xx_ll_gpio.o(.text.LL_GPIO_SetPinSpeed)
    LL_GPIO_SetPinSpeed                      0x08001315   Thumb Code    20  py32f0xx_bsp_usart.o(.text.LL_GPIO_SetPinSpeed)
    [Anonymous Symbol]                       0x08001314   Section        0  py32f0xx_bsp_usart.o(.text.LL_GPIO_SetPinSpeed)
    __arm_cp.12_0                            0x08001324   Number         4  py32f0xx_bsp_usart.o(.text.LL_GPIO_SetPinSpeed)
    LL_I2C_AcknowledgeNextData               0x08001329   Thumb Code    14  py32f0xx_ll_i2c.o(.text.LL_I2C_AcknowledgeNextData)
    [Anonymous Symbol]                       0x08001328   Section        0  py32f0xx_ll_i2c.o(.text.LL_I2C_AcknowledgeNextData)
    LL_I2C_AcknowledgeNextData               0x08001339   Thumb Code    16  py32f0xx_bsp_i2c.o(.text.LL_I2C_AcknowledgeNextData)
    [Anonymous Symbol]                       0x08001338   Section        0  py32f0xx_bsp_i2c.o(.text.LL_I2C_AcknowledgeNextData)
    LL_I2C_ClearFlag_ADDR                    0x08001349   Thumb Code    20  py32f0xx_bsp_i2c.o(.text.LL_I2C_ClearFlag_ADDR)
    [Anonymous Symbol]                       0x08001348   Section        0  py32f0xx_bsp_i2c.o(.text.LL_I2C_ClearFlag_ADDR)
    LL_I2C_ClearFlag_AF                      0x0800135d   Thumb Code    16  py32f0xx_bsp_i2c.o(.text.LL_I2C_ClearFlag_AF)
    [Anonymous Symbol]                       0x0800135c   Section        0  py32f0xx_bsp_i2c.o(.text.LL_I2C_ClearFlag_AF)
    LL_I2C_ClearFlag_BERR                    0x0800136d   Thumb Code    16  py32f0xx_bsp_i2c.o(.text.LL_I2C_ClearFlag_BERR)
    [Anonymous Symbol]                       0x0800136c   Section        0  py32f0xx_bsp_i2c.o(.text.LL_I2C_ClearFlag_BERR)
    LL_I2C_ConfigSpeed                       0x0800137d   Thumb Code   164  py32f0xx_ll_i2c.o(.text.LL_I2C_ConfigSpeed)
    [Anonymous Symbol]                       0x0800137c   Section        0  py32f0xx_ll_i2c.o(.text.LL_I2C_ConfigSpeed)
    __arm_cp.5_0                             0x08001410   Number         4  py32f0xx_ll_i2c.o(.text.LL_I2C_ConfigSpeed)
    __arm_cp.5_1                             0x08001414   Number         4  py32f0xx_ll_i2c.o(.text.LL_I2C_ConfigSpeed)
    __arm_cp.5_2                             0x08001418   Number         4  py32f0xx_ll_i2c.o(.text.LL_I2C_ConfigSpeed)
    __arm_cp.5_3                             0x0800141c   Number         4  py32f0xx_ll_i2c.o(.text.LL_I2C_ConfigSpeed)
    LL_I2C_Disable                           0x08001421   Thumb Code    10  py32f0xx_ll_i2c.o(.text.LL_I2C_Disable)
    [Anonymous Symbol]                       0x08001420   Section        0  py32f0xx_ll_i2c.o(.text.LL_I2C_Disable)
    LL_I2C_DisableBitPOS                     0x0800142d   Thumb Code    16  py32f0xx_bsp_i2c.o(.text.LL_I2C_DisableBitPOS)
    [Anonymous Symbol]                       0x0800142c   Section        0  py32f0xx_bsp_i2c.o(.text.LL_I2C_DisableBitPOS)
    LL_I2C_DisableIT_BUF                     0x0800143d   Thumb Code    16  py32f0xx_bsp_i2c.o(.text.LL_I2C_DisableIT_BUF)
    [Anonymous Symbol]                       0x0800143c   Section        0  py32f0xx_bsp_i2c.o(.text.LL_I2C_DisableIT_BUF)
    LL_I2C_DisableIT_EVT                     0x0800144d   Thumb Code    16  py32f0xx_bsp_i2c.o(.text.LL_I2C_DisableIT_EVT)
    [Anonymous Symbol]                       0x0800144c   Section        0  py32f0xx_bsp_i2c.o(.text.LL_I2C_DisableIT_EVT)
    LL_I2C_DisableIT_RX                      0x0800145d   Thumb Code    16  py32f0xx_bsp_i2c.o(.text.LL_I2C_DisableIT_RX)
    [Anonymous Symbol]                       0x0800145c   Section        0  py32f0xx_bsp_i2c.o(.text.LL_I2C_DisableIT_RX)
    LL_I2C_DisableIT_TX                      0x0800146d   Thumb Code    16  py32f0xx_bsp_i2c.o(.text.LL_I2C_DisableIT_TX)
    [Anonymous Symbol]                       0x0800146c   Section        0  py32f0xx_bsp_i2c.o(.text.LL_I2C_DisableIT_TX)
    LL_I2C_DisableReset                      0x0800147d   Thumb Code    16  py32f0xx_bsp_i2c.o(.text.LL_I2C_DisableReset)
    [Anonymous Symbol]                       0x0800147c   Section        0  py32f0xx_bsp_i2c.o(.text.LL_I2C_DisableReset)
    LL_I2C_Enable                            0x0800148d   Thumb Code    10  py32f0xx_ll_i2c.o(.text.LL_I2C_Enable)
    [Anonymous Symbol]                       0x0800148c   Section        0  py32f0xx_ll_i2c.o(.text.LL_I2C_Enable)
    LL_I2C_EnableIT_ERR                      0x08001499   Thumb Code    16  py32f0xx_bsp_i2c.o(.text.LL_I2C_EnableIT_ERR)
    [Anonymous Symbol]                       0x08001498   Section        0  py32f0xx_bsp_i2c.o(.text.LL_I2C_EnableIT_ERR)
    LL_I2C_EnableIT_RX                       0x080014a9   Thumb Code    16  py32f0xx_bsp_i2c.o(.text.LL_I2C_EnableIT_RX)
    [Anonymous Symbol]                       0x080014a8   Section        0  py32f0xx_bsp_i2c.o(.text.LL_I2C_EnableIT_RX)
    LL_I2C_EnableIT_TX                       0x080014b9   Thumb Code    20  py32f0xx_bsp_i2c.o(.text.LL_I2C_EnableIT_TX)
    [Anonymous Symbol]                       0x080014b8   Section        0  py32f0xx_bsp_i2c.o(.text.LL_I2C_EnableIT_TX)
    __arm_cp.35_0                            0x080014c8   Number         4  py32f0xx_bsp_i2c.o(.text.LL_I2C_EnableIT_TX)
    LL_I2C_EnableReset                       0x080014cd   Thumb Code    16  py32f0xx_bsp_i2c.o(.text.LL_I2C_EnableReset)
    [Anonymous Symbol]                       0x080014cc   Section        0  py32f0xx_bsp_i2c.o(.text.LL_I2C_EnableReset)
    LL_I2C_GenerateStartCondition            0x080014dd   Thumb Code    16  py32f0xx_bsp_i2c.o(.text.LL_I2C_GenerateStartCondition)
    [Anonymous Symbol]                       0x080014dc   Section        0  py32f0xx_bsp_i2c.o(.text.LL_I2C_GenerateStartCondition)
    LL_I2C_GenerateStopCondition             0x080014ed   Thumb Code    20  py32f0xx_bsp_i2c.o(.text.LL_I2C_GenerateStopCondition)
    [Anonymous Symbol]                       0x080014ec   Section        0  py32f0xx_bsp_i2c.o(.text.LL_I2C_GenerateStopCondition)
    __arm_cp.19_0                            0x080014fc   Number         4  py32f0xx_bsp_i2c.o(.text.LL_I2C_GenerateStopCondition)
    [Anonymous Symbol]                       0x08001500   Section        0  py32f0xx_ll_i2c.o(.text.LL_I2C_Init)
    LL_I2C_IsActiveFlag_ADDR                 0x0800153d   Thumb Code    12  py32f0xx_bsp_i2c.o(.text.LL_I2C_IsActiveFlag_ADDR)
    [Anonymous Symbol]                       0x0800153c   Section        0  py32f0xx_bsp_i2c.o(.text.LL_I2C_IsActiveFlag_ADDR)
    LL_I2C_IsActiveFlag_AF                   0x08001549   Thumb Code    12  py32f0xx_bsp_i2c.o(.text.LL_I2C_IsActiveFlag_AF)
    [Anonymous Symbol]                       0x08001548   Section        0  py32f0xx_bsp_i2c.o(.text.LL_I2C_IsActiveFlag_AF)
    LL_I2C_IsActiveFlag_BERR                 0x08001555   Thumb Code    12  py32f0xx_bsp_i2c.o(.text.LL_I2C_IsActiveFlag_BERR)
    [Anonymous Symbol]                       0x08001554   Section        0  py32f0xx_bsp_i2c.o(.text.LL_I2C_IsActiveFlag_BERR)
    LL_I2C_IsActiveFlag_BTF                  0x08001561   Thumb Code    12  py32f0xx_bsp_i2c.o(.text.LL_I2C_IsActiveFlag_BTF)
    [Anonymous Symbol]                       0x08001560   Section        0  py32f0xx_bsp_i2c.o(.text.LL_I2C_IsActiveFlag_BTF)
    LL_I2C_IsActiveFlag_BUSY                 0x0800156d   Thumb Code    16  py32f0xx_bsp_i2c.o(.text.LL_I2C_IsActiveFlag_BUSY)
    [Anonymous Symbol]                       0x0800156c   Section        0  py32f0xx_bsp_i2c.o(.text.LL_I2C_IsActiveFlag_BUSY)
    __arm_cp.13_0                            0x08001578   Number         4  py32f0xx_bsp_i2c.o(.text.LL_I2C_IsActiveFlag_BUSY)
    LL_I2C_IsActiveFlag_RXNE                 0x0800157d   Thumb Code    12  py32f0xx_bsp_i2c.o(.text.LL_I2C_IsActiveFlag_RXNE)
    [Anonymous Symbol]                       0x0800157c   Section        0  py32f0xx_bsp_i2c.o(.text.LL_I2C_IsActiveFlag_RXNE)
    LL_I2C_IsActiveFlag_SB                   0x08001589   Thumb Code    12  py32f0xx_bsp_i2c.o(.text.LL_I2C_IsActiveFlag_SB)
    [Anonymous Symbol]                       0x08001588   Section        0  py32f0xx_bsp_i2c.o(.text.LL_I2C_IsActiveFlag_SB)
    LL_I2C_IsActiveFlag_TXE                  0x08001595   Thumb Code    16  py32f0xx_bsp_i2c.o(.text.LL_I2C_IsActiveFlag_TXE)
    [Anonymous Symbol]                       0x08001594   Section        0  py32f0xx_bsp_i2c.o(.text.LL_I2C_IsActiveFlag_TXE)
    __arm_cp.22_0                            0x080015a0   Number         4  py32f0xx_bsp_i2c.o(.text.LL_I2C_IsActiveFlag_TXE)
    LL_I2C_ReceiveData8                      0x080015a5   Thumb Code     8  py32f0xx_bsp_i2c.o(.text.LL_I2C_ReceiveData8)
    [Anonymous Symbol]                       0x080015a4   Section        0  py32f0xx_bsp_i2c.o(.text.LL_I2C_ReceiveData8)
    LL_I2C_SetOwnAddress1                    0x080015ad   Thumb Code    12  py32f0xx_ll_i2c.o(.text.LL_I2C_SetOwnAddress1)
    [Anonymous Symbol]                       0x080015ac   Section        0  py32f0xx_ll_i2c.o(.text.LL_I2C_SetOwnAddress1)
    LL_I2C_TransmitData8                     0x080015b9   Thumb Code    20  py32f0xx_bsp_i2c.o(.text.LL_I2C_TransmitData8)
    [Anonymous Symbol]                       0x080015b8   Section        0  py32f0xx_bsp_i2c.o(.text.LL_I2C_TransmitData8)
    __arm_cp.17_0                            0x080015c8   Number         4  py32f0xx_bsp_i2c.o(.text.LL_I2C_TransmitData8)
    LL_IOP_GRP1_EnableClock                  0x080015cd   Thumb Code    24  py32f0xx_bsp_gpio.o(.text.LL_IOP_GRP1_EnableClock)
    [Anonymous Symbol]                       0x080015cc   Section        0  py32f0xx_bsp_gpio.o(.text.LL_IOP_GRP1_EnableClock)
    LL_IOP_GRP1_EnableClock                  0x080015e5   Thumb Code    28  py32f0xx_bsp_usart.o(.text.LL_IOP_GRP1_EnableClock)
    [Anonymous Symbol]                       0x080015e4   Section        0  py32f0xx_bsp_usart.o(.text.LL_IOP_GRP1_EnableClock)
    __arm_cp.10_0                            0x080015fc   Number         4  py32f0xx_bsp_usart.o(.text.LL_IOP_GRP1_EnableClock)
    LL_InitTick                              0x08001601   Thumb Code    20  py32f0xx_bsp_rcc.o(.text.LL_InitTick)
    [Anonymous Symbol]                       0x08001600   Section        0  py32f0xx_bsp_rcc.o(.text.LL_InitTick)
    __arm_cp.10_1                            0x08001610   Number         4  py32f0xx_bsp_rcc.o(.text.LL_InitTick)
    LL_LPM_DisableEventOnPend                0x08001615   Thumb Code    12  py32f0xx_bsp_pwr.o(.text.LL_LPM_DisableEventOnPend)
    [Anonymous Symbol]                       0x08001614   Section        0  py32f0xx_bsp_pwr.o(.text.LL_LPM_DisableEventOnPend)
    LL_LPM_DisableSleepOnExit                0x08001621   Thumb Code    12  py32f0xx_bsp_pwr.o(.text.LL_LPM_DisableSleepOnExit)
    [Anonymous Symbol]                       0x08001620   Section        0  py32f0xx_bsp_pwr.o(.text.LL_LPM_DisableSleepOnExit)
    LL_LPM_EnableDeepSleep                   0x0800162d   Thumb Code    12  main.o(.text.LL_LPM_EnableDeepSleep)
    [Anonymous Symbol]                       0x0800162c   Section        0  main.o(.text.LL_LPM_EnableDeepSleep)
    LL_LPM_EnableSleep                       0x08001639   Thumb Code    12  main.o(.text.LL_LPM_EnableSleep)
    [Anonymous Symbol]                       0x08001638   Section        0  main.o(.text.LL_LPM_EnableSleep)
    LL_LPM_EnableSleep                       0x08001645   Thumb Code    16  py32f0xx_bsp_pwr.o(.text.LL_LPM_EnableSleep)
    [Anonymous Symbol]                       0x08001644   Section        0  py32f0xx_bsp_pwr.o(.text.LL_LPM_EnableSleep)
    __arm_cp.5_0                             0x08001650   Number         4  py32f0xx_bsp_pwr.o(.text.LL_LPM_EnableSleep)
    LL_PWR_EnableLowPowerRunMode             0x08001655   Thumb Code    16  py32f0xx_bsp_pwr.o(.text.LL_PWR_EnableLowPowerRunMode)
    [Anonymous Symbol]                       0x08001654   Section        0  py32f0xx_bsp_pwr.o(.text.LL_PWR_EnableLowPowerRunMode)
    LL_PWR_SetRegulVoltageScaling            0x08001665   Thumb Code    20  py32f0xx_bsp_pwr.o(.text.LL_PWR_SetRegulVoltageScaling)
    [Anonymous Symbol]                       0x08001664   Section        0  py32f0xx_bsp_pwr.o(.text.LL_PWR_SetRegulVoltageScaling)
    __arm_cp.2_0                             0x08001674   Number         4  py32f0xx_bsp_pwr.o(.text.LL_PWR_SetRegulVoltageScaling)
    LL_RCC_GetAHBPrescaler                   0x08001679   Thumb Code    12  py32f0xx_ll_rcc.o(.text.LL_RCC_GetAHBPrescaler)
    [Anonymous Symbol]                       0x08001678   Section        0  py32f0xx_ll_rcc.o(.text.LL_RCC_GetAHBPrescaler)
    LL_RCC_GetAPB1Prescaler                  0x08001685   Thumb Code    12  py32f0xx_ll_rcc.o(.text.LL_RCC_GetAPB1Prescaler)
    [Anonymous Symbol]                       0x08001684   Section        0  py32f0xx_ll_rcc.o(.text.LL_RCC_GetAPB1Prescaler)
    LL_RCC_GetHSIDiv                         0x08001691   Thumb Code    12  py32f0xx_ll_rcc.o(.text.LL_RCC_GetHSIDiv)
    [Anonymous Symbol]                       0x08001690   Section        0  py32f0xx_ll_rcc.o(.text.LL_RCC_GetHSIDiv)
    LL_RCC_GetSysClkSource                   0x0800169d   Thumb Code    12  py32f0xx_ll_rcc.o(.text.LL_RCC_GetSysClkSource)
    [Anonymous Symbol]                       0x0800169c   Section        0  py32f0xx_ll_rcc.o(.text.LL_RCC_GetSysClkSource)
    LL_RCC_GetSysClkSource                   0x080016a9   Thumb Code    12  py32f0xx_bsp_rcc.o(.text.LL_RCC_GetSysClkSource)
    [Anonymous Symbol]                       0x080016a8   Section        0  py32f0xx_bsp_rcc.o(.text.LL_RCC_GetSysClkSource)
    [Anonymous Symbol]                       0x080016b4   Section        0  py32f0xx_ll_rcc.o(.text.LL_RCC_GetSystemClocksFreq)
    LL_RCC_HSE_Disable                       0x080016cd   Thumb Code    16  py32f0xx_bsp_rcc.o(.text.LL_RCC_HSE_Disable)
    [Anonymous Symbol]                       0x080016cc   Section        0  py32f0xx_bsp_rcc.o(.text.LL_RCC_HSE_Disable)
    LL_RCC_HSI_Enable                        0x080016dd   Thumb Code    16  py32f0xx_bsp_rcc.o(.text.LL_RCC_HSI_Enable)
    [Anonymous Symbol]                       0x080016dc   Section        0  py32f0xx_bsp_rcc.o(.text.LL_RCC_HSI_Enable)
    LL_RCC_HSI_GetFreq                       0x080016ed   Thumb Code    20  py32f0xx_ll_rcc.o(.text.LL_RCC_HSI_GetFreq)
    [Anonymous Symbol]                       0x080016ec   Section        0  py32f0xx_ll_rcc.o(.text.LL_RCC_HSI_GetFreq)
    __arm_cp.13_1                            0x080016fc   Number         4  py32f0xx_ll_rcc.o(.text.LL_RCC_HSI_GetFreq)
    LL_RCC_HSI_IsReady                       0x08001701   Thumb Code    16  py32f0xx_bsp_rcc.o(.text.LL_RCC_HSI_IsReady)
    [Anonymous Symbol]                       0x08001700   Section        0  py32f0xx_bsp_rcc.o(.text.LL_RCC_HSI_IsReady)
    __arm_cp.5_0                             0x0800170c   Number         4  py32f0xx_bsp_rcc.o(.text.LL_RCC_HSI_IsReady)
    LL_RCC_HSI_SetCalibFreq                  0x08001711   Thumb Code    24  py32f0xx_bsp_rcc.o(.text.LL_RCC_HSI_SetCalibFreq)
    [Anonymous Symbol]                       0x08001710   Section        0  py32f0xx_bsp_rcc.o(.text.LL_RCC_HSI_SetCalibFreq)
    __arm_cp.4_0                             0x08001720   Number         4  py32f0xx_bsp_rcc.o(.text.LL_RCC_HSI_SetCalibFreq)
    __arm_cp.4_1                             0x08001724   Number         4  py32f0xx_bsp_rcc.o(.text.LL_RCC_HSI_SetCalibFreq)
    LL_RCC_LSE_Disable                       0x08001729   Thumb Code    16  py32f0xx_bsp_rcc.o(.text.LL_RCC_LSE_Disable)
    [Anonymous Symbol]                       0x08001728   Section        0  py32f0xx_bsp_rcc.o(.text.LL_RCC_LSE_Disable)
    __arm_cp.13_0                            0x08001734   Number         4  py32f0xx_bsp_rcc.o(.text.LL_RCC_LSE_Disable)
    LL_RCC_LSI_Disable                       0x08001739   Thumb Code    16  py32f0xx_bsp_rcc.o(.text.LL_RCC_LSI_Disable)
    [Anonymous Symbol]                       0x08001738   Section        0  py32f0xx_bsp_rcc.o(.text.LL_RCC_LSI_Disable)
    __arm_cp.15_0                            0x08001744   Number         4  py32f0xx_bsp_rcc.o(.text.LL_RCC_LSI_Disable)
    LL_RCC_PLL_GetMainSource                 0x08001749   Thumb Code    16  py32f0xx_ll_rcc.o(.text.LL_RCC_PLL_GetMainSource)
    [Anonymous Symbol]                       0x08001748   Section        0  py32f0xx_ll_rcc.o(.text.LL_RCC_PLL_GetMainSource)
    __arm_cp.31_0                            0x08001754   Number         4  py32f0xx_ll_rcc.o(.text.LL_RCC_PLL_GetMainSource)
    LL_RCC_SetAHBPrescaler                   0x08001759   Thumb Code    16  py32f0xx_bsp_rcc.o(.text.LL_RCC_SetAHBPrescaler)
    [Anonymous Symbol]                       0x08001758   Section        0  py32f0xx_bsp_rcc.o(.text.LL_RCC_SetAHBPrescaler)
    LL_RCC_SetAPB1Prescaler                  0x08001769   Thumb Code    16  py32f0xx_bsp_rcc.o(.text.LL_RCC_SetAPB1Prescaler)
    [Anonymous Symbol]                       0x08001768   Section        0  py32f0xx_bsp_rcc.o(.text.LL_RCC_SetAPB1Prescaler)
    LL_RCC_SetSysClkSource                   0x08001779   Thumb Code    16  py32f0xx_bsp_rcc.o(.text.LL_RCC_SetSysClkSource)
    [Anonymous Symbol]                       0x08001778   Section        0  py32f0xx_bsp_rcc.o(.text.LL_RCC_SetSysClkSource)
    __arm_cp.7_0                             0x08001784   Number         4  py32f0xx_bsp_rcc.o(.text.LL_RCC_SetSysClkSource)
    LL_SYSTICK_DisableIT                     0x08001789   Thumb Code    12  main.o(.text.LL_SYSTICK_DisableIT)
    [Anonymous Symbol]                       0x08001788   Section        0  main.o(.text.LL_SYSTICK_DisableIT)
    LL_SYSTICK_EnableIT                      0x08001795   Thumb Code    12  main.o(.text.LL_SYSTICK_EnableIT)
    [Anonymous Symbol]                       0x08001794   Section        0  main.o(.text.LL_SYSTICK_EnableIT)
    LL_SYSTICK_EnableIT                      0x080017a1   Thumb Code    16  py32f0xx_bsp_rcc.o(.text.LL_SYSTICK_EnableIT)
    [Anonymous Symbol]                       0x080017a0   Section        0  py32f0xx_bsp_rcc.o(.text.LL_SYSTICK_EnableIT)
    __arm_cp.11_0                            0x080017ac   Number         4  py32f0xx_bsp_rcc.o(.text.LL_SYSTICK_EnableIT)
    [Anonymous Symbol]                       0x080017b0   Section        0  py32f0xx_ll_utils.o(.text.LL_SetSystemCoreClock)
    __arm_cp.3_0                             0x080017b8   Number         4  py32f0xx_ll_utils.o(.text.LL_SetSystemCoreClock)
    LL_TIM_EnableAllOutputs                  0x080017bd   Thumb Code    20  py32f0xx_bsp_tim.o(.text.LL_TIM_EnableAllOutputs)
    [Anonymous Symbol]                       0x080017bc   Section        0  py32f0xx_bsp_tim.o(.text.LL_TIM_EnableAllOutputs)
    __arm_cp.2_0                             0x080017cc   Number         4  py32f0xx_bsp_tim.o(.text.LL_TIM_EnableAllOutputs)
    LL_TIM_EnableCounter                     0x080017d1   Thumb Code    12  py32f0xx_bsp_tim.o(.text.LL_TIM_EnableCounter)
    [Anonymous Symbol]                       0x080017d0   Section        0  py32f0xx_bsp_tim.o(.text.LL_TIM_EnableCounter)
    LL_TIM_GenerateEvent_UPDATE              0x080017dd   Thumb Code    10  py32f0xx_ll_tim.o(.text.LL_TIM_GenerateEvent_UPDATE)
    [Anonymous Symbol]                       0x080017dc   Section        0  py32f0xx_ll_tim.o(.text.LL_TIM_GenerateEvent_UPDATE)
    [Anonymous Symbol]                       0x080017e8   Section        0  py32f0xx_ll_tim.o(.text.LL_TIM_Init)
    __arm_cp.6_1                             0x08001870   Number         4  py32f0xx_ll_tim.o(.text.LL_TIM_Init)
    __arm_cp.6_2                             0x08001874   Number         4  py32f0xx_ll_tim.o(.text.LL_TIM_Init)
    __arm_cp.6_5                             0x08001878   Number         4  py32f0xx_ll_tim.o(.text.LL_TIM_Init)
    [Anonymous Symbol]                       0x0800187c   Section        0  py32f0xx_ll_tim.o(.text.LL_TIM_OC_Init)
    LL_TIM_OC_SetCompareCH1                  0x080018cd   Thumb Code     4  py32f0xx_ll_tim.o(.text.LL_TIM_OC_SetCompareCH1)
    [Anonymous Symbol]                       0x080018cc   Section        0  py32f0xx_ll_tim.o(.text.LL_TIM_OC_SetCompareCH1)
    LL_TIM_OC_SetCompareCH1                  0x080018d1   Thumb Code    12  py32f0xx_bsp_tim.o(.text.LL_TIM_OC_SetCompareCH1)
    [Anonymous Symbol]                       0x080018d0   Section        0  py32f0xx_bsp_tim.o(.text.LL_TIM_OC_SetCompareCH1)
    __arm_cp.6_0                             0x080018d8   Number         4  py32f0xx_bsp_tim.o(.text.LL_TIM_OC_SetCompareCH1)
    LL_TIM_OC_SetCompareCH2                  0x080018dd   Thumb Code     4  py32f0xx_ll_tim.o(.text.LL_TIM_OC_SetCompareCH2)
    [Anonymous Symbol]                       0x080018dc   Section        0  py32f0xx_ll_tim.o(.text.LL_TIM_OC_SetCompareCH2)
    LL_TIM_OC_SetCompareCH3                  0x080018e1   Thumb Code     4  py32f0xx_ll_tim.o(.text.LL_TIM_OC_SetCompareCH3)
    [Anonymous Symbol]                       0x080018e0   Section        0  py32f0xx_ll_tim.o(.text.LL_TIM_OC_SetCompareCH3)
    LL_TIM_OC_SetCompareCH4                  0x080018e5   Thumb Code     4  py32f0xx_ll_tim.o(.text.LL_TIM_OC_SetCompareCH4)
    [Anonymous Symbol]                       0x080018e4   Section        0  py32f0xx_ll_tim.o(.text.LL_TIM_OC_SetCompareCH4)
    LL_TIM_SetAutoReload                     0x080018e9   Thumb Code     4  py32f0xx_ll_tim.o(.text.LL_TIM_SetAutoReload)
    [Anonymous Symbol]                       0x080018e8   Section        0  py32f0xx_ll_tim.o(.text.LL_TIM_SetAutoReload)
    LL_TIM_SetPrescaler                      0x080018ed   Thumb Code     4  py32f0xx_ll_tim.o(.text.LL_TIM_SetPrescaler)
    [Anonymous Symbol]                       0x080018ec   Section        0  py32f0xx_ll_tim.o(.text.LL_TIM_SetPrescaler)
    LL_TIM_SetRepetitionCounter              0x080018f1   Thumb Code     4  py32f0xx_ll_tim.o(.text.LL_TIM_SetRepetitionCounter)
    [Anonymous Symbol]                       0x080018f0   Section        0  py32f0xx_ll_tim.o(.text.LL_TIM_SetRepetitionCounter)
    LL_USART_ClearFlag_FE                    0x080018f5   Thumb Code    20  py32f0xx_bsp_usart.o(.text.LL_USART_ClearFlag_FE)
    [Anonymous Symbol]                       0x080018f4   Section        0  py32f0xx_bsp_usart.o(.text.LL_USART_ClearFlag_FE)
    LL_USART_ClearFlag_NE                    0x08001909   Thumb Code    20  py32f0xx_bsp_usart.o(.text.LL_USART_ClearFlag_NE)
    [Anonymous Symbol]                       0x08001908   Section        0  py32f0xx_bsp_usart.o(.text.LL_USART_ClearFlag_NE)
    LL_USART_ClearFlag_ORE                   0x0800191d   Thumb Code    20  py32f0xx_bsp_usart.o(.text.LL_USART_ClearFlag_ORE)
    [Anonymous Symbol]                       0x0800191c   Section        0  py32f0xx_bsp_usart.o(.text.LL_USART_ClearFlag_ORE)
    LL_USART_ClearFlag_PE                    0x08001931   Thumb Code    20  py32f0xx_bsp_usart.o(.text.LL_USART_ClearFlag_PE)
    [Anonymous Symbol]                       0x08001930   Section        0  py32f0xx_bsp_usart.o(.text.LL_USART_ClearFlag_PE)
    LL_USART_ClearFlag_TC                    0x08001945   Thumb Code    12  py32f0xx_bsp_usart.o(.text.LL_USART_ClearFlag_TC)
    [Anonymous Symbol]                       0x08001944   Section        0  py32f0xx_bsp_usart.o(.text.LL_USART_ClearFlag_TC)
    LL_USART_DisableIT_TXE                   0x08001951   Thumb Code    12  py32f0xx_bsp_usart.o(.text.LL_USART_DisableIT_TXE)
    [Anonymous Symbol]                       0x08001950   Section        0  py32f0xx_bsp_usart.o(.text.LL_USART_DisableIT_TXE)
    LL_USART_Enable                          0x0800195d   Thumb Code    16  py32f0xx_bsp_usart.o(.text.LL_USART_Enable)
    [Anonymous Symbol]                       0x0800195c   Section        0  py32f0xx_bsp_usart.o(.text.LL_USART_Enable)
    LL_USART_EnableIT_ERROR                  0x0800196d   Thumb Code    12  py32f0xx_bsp_usart.o(.text.LL_USART_EnableIT_ERROR)
    [Anonymous Symbol]                       0x0800196c   Section        0  py32f0xx_bsp_usart.o(.text.LL_USART_EnableIT_ERROR)
    LL_USART_EnableIT_PE                     0x08001979   Thumb Code    16  py32f0xx_bsp_usart.o(.text.LL_USART_EnableIT_PE)
    [Anonymous Symbol]                       0x08001978   Section        0  py32f0xx_bsp_usart.o(.text.LL_USART_EnableIT_PE)
    LL_USART_EnableIT_RXNE                   0x08001989   Thumb Code    12  py32f0xx_bsp_usart.o(.text.LL_USART_EnableIT_RXNE)
    [Anonymous Symbol]                       0x08001988   Section        0  py32f0xx_bsp_usart.o(.text.LL_USART_EnableIT_RXNE)
    LL_USART_EnableIT_TXE                    0x08001995   Thumb Code    12  py32f0xx_bsp_usart.o(.text.LL_USART_EnableIT_TXE)
    [Anonymous Symbol]                       0x08001994   Section        0  py32f0xx_bsp_usart.o(.text.LL_USART_EnableIT_TXE)
    LL_USART_IsActiveFlag_FE                 0x080019a1   Thumb Code    12  py32f0xx_bsp_usart.o(.text.LL_USART_IsActiveFlag_FE)
    [Anonymous Symbol]                       0x080019a0   Section        0  py32f0xx_bsp_usart.o(.text.LL_USART_IsActiveFlag_FE)
    LL_USART_IsActiveFlag_NE                 0x080019ad   Thumb Code    12  py32f0xx_bsp_usart.o(.text.LL_USART_IsActiveFlag_NE)
    [Anonymous Symbol]                       0x080019ac   Section        0  py32f0xx_bsp_usart.o(.text.LL_USART_IsActiveFlag_NE)
    LL_USART_IsActiveFlag_ORE                0x080019b9   Thumb Code    12  py32f0xx_bsp_usart.o(.text.LL_USART_IsActiveFlag_ORE)
    [Anonymous Symbol]                       0x080019b8   Section        0  py32f0xx_bsp_usart.o(.text.LL_USART_IsActiveFlag_ORE)
    LL_USART_IsActiveFlag_PE                 0x080019c5   Thumb Code    12  py32f0xx_bsp_usart.o(.text.LL_USART_IsActiveFlag_PE)
    [Anonymous Symbol]                       0x080019c4   Section        0  py32f0xx_bsp_usart.o(.text.LL_USART_IsActiveFlag_PE)
    LL_USART_IsActiveFlag_RXNE               0x080019d1   Thumb Code    12  py32f0xx_bsp_usart.o(.text.LL_USART_IsActiveFlag_RXNE)
    [Anonymous Symbol]                       0x080019d0   Section        0  py32f0xx_bsp_usart.o(.text.LL_USART_IsActiveFlag_RXNE)
    LL_USART_IsActiveFlag_TXE                0x080019dd   Thumb Code    16  py32f0xx_bsp_usart.o(.text.LL_USART_IsActiveFlag_TXE)
    [Anonymous Symbol]                       0x080019dc   Section        0  py32f0xx_bsp_usart.o(.text.LL_USART_IsActiveFlag_TXE)
    __arm_cp.29_0                            0x080019e8   Number         4  py32f0xx_bsp_usart.o(.text.LL_USART_IsActiveFlag_TXE)
    LL_USART_IsEnabledIT_TXE                 0x080019ed   Thumb Code    12  py32f0xx_bsp_usart.o(.text.LL_USART_IsEnabledIT_TXE)
    [Anonymous Symbol]                       0x080019ec   Section        0  py32f0xx_bsp_usart.o(.text.LL_USART_IsEnabledIT_TXE)
    LL_USART_ReceiveData8                    0x080019f9   Thumb Code     8  py32f0xx_bsp_usart.o(.text.LL_USART_ReceiveData8)
    [Anonymous Symbol]                       0x080019f8   Section        0  py32f0xx_bsp_usart.o(.text.LL_USART_ReceiveData8)
    LL_USART_SetBaudRate                     0x08001a01   Thumb Code    68  py32f0xx_bsp_usart.o(.text.LL_USART_SetBaudRate)
    [Anonymous Symbol]                       0x08001a00   Section        0  py32f0xx_bsp_usart.o(.text.LL_USART_SetBaudRate)
    __arm_cp.2_0                             0x08001a40   Number         4  py32f0xx_bsp_usart.o(.text.LL_USART_SetBaudRate)
    LL_USART_SetDataWidth                    0x08001a45   Thumb Code    16  py32f0xx_bsp_usart.o(.text.LL_USART_SetDataWidth)
    [Anonymous Symbol]                       0x08001a44   Section        0  py32f0xx_bsp_usart.o(.text.LL_USART_SetDataWidth)
    LL_USART_SetHWFlowCtrl                   0x08001a55   Thumb Code    20  py32f0xx_bsp_usart.o(.text.LL_USART_SetHWFlowCtrl)
    [Anonymous Symbol]                       0x08001a54   Section        0  py32f0xx_bsp_usart.o(.text.LL_USART_SetHWFlowCtrl)
    __arm_cp.6_0                             0x08001a64   Number         4  py32f0xx_bsp_usart.o(.text.LL_USART_SetHWFlowCtrl)
    LL_USART_SetParity                       0x08001a69   Thumb Code    16  py32f0xx_bsp_usart.o(.text.LL_USART_SetParity)
    [Anonymous Symbol]                       0x08001a68   Section        0  py32f0xx_bsp_usart.o(.text.LL_USART_SetParity)
    LL_USART_SetStopBitsLength               0x08001a79   Thumb Code    20  py32f0xx_bsp_usart.o(.text.LL_USART_SetStopBitsLength)
    [Anonymous Symbol]                       0x08001a78   Section        0  py32f0xx_bsp_usart.o(.text.LL_USART_SetStopBitsLength)
    __arm_cp.4_0                             0x08001a88   Number         4  py32f0xx_bsp_usart.o(.text.LL_USART_SetStopBitsLength)
    LL_USART_SetTransferDirection            0x08001a8d   Thumb Code    16  py32f0xx_bsp_usart.o(.text.LL_USART_SetTransferDirection)
    [Anonymous Symbol]                       0x08001a8c   Section        0  py32f0xx_bsp_usart.o(.text.LL_USART_SetTransferDirection)
    __arm_cp.7_0                             0x08001a98   Number         4  py32f0xx_bsp_usart.o(.text.LL_USART_SetTransferDirection)
    LL_USART_TransmitData8                   0x08001a9d   Thumb Code    12  py32f0xx_bsp_usart.o(.text.LL_USART_TransmitData8)
    [Anonymous Symbol]                       0x08001a9c   Section        0  py32f0xx_bsp_usart.o(.text.LL_USART_TransmitData8)
    __arm_cp.22_0                            0x08001aa4   Number         4  py32f0xx_bsp_usart.o(.text.LL_USART_TransmitData8)
    [Anonymous Symbol]                       0x08001aa8   Section        0  py32f0xx_ll_utils.o(.text.LL_mDelay)
    __arm_cp.2_0                             0x08001acc   Number         4  py32f0xx_ll_utils.o(.text.LL_mDelay)
    [Anonymous Symbol]                       0x08001ad0   Section        0  py32f0xx_it.o(.text.NMI_Handler)
    OC1Config                                0x08001ad5   Thumb Code   136  py32f0xx_ll_tim.o(.text.OC1Config)
    [Anonymous Symbol]                       0x08001ad4   Section        0  py32f0xx_ll_tim.o(.text.OC1Config)
    __arm_cp.13_0                            0x08001b50   Number         4  py32f0xx_ll_tim.o(.text.OC1Config)
    __arm_cp.13_1                            0x08001b54   Number         4  py32f0xx_ll_tim.o(.text.OC1Config)
    __arm_cp.13_2                            0x08001b58   Number         4  py32f0xx_ll_tim.o(.text.OC1Config)
    OC2Config                                0x08001b5d   Thumb Code   152  py32f0xx_ll_tim.o(.text.OC2Config)
    [Anonymous Symbol]                       0x08001b5c   Section        0  py32f0xx_ll_tim.o(.text.OC2Config)
    __arm_cp.14_1                            0x08001be8   Number         4  py32f0xx_ll_tim.o(.text.OC2Config)
    __arm_cp.14_2                            0x08001bec   Number         4  py32f0xx_ll_tim.o(.text.OC2Config)
    __arm_cp.14_3                            0x08001bf0   Number         4  py32f0xx_ll_tim.o(.text.OC2Config)
    OC3Config                                0x08001bf5   Thumb Code   148  py32f0xx_ll_tim.o(.text.OC3Config)
    [Anonymous Symbol]                       0x08001bf4   Section        0  py32f0xx_ll_tim.o(.text.OC3Config)
    __arm_cp.15_0                            0x08001c80   Number         4  py32f0xx_ll_tim.o(.text.OC3Config)
    __arm_cp.15_4                            0x08001c84   Number         4  py32f0xx_ll_tim.o(.text.OC3Config)
    OC4Config                                0x08001c89   Thumb Code   124  py32f0xx_ll_tim.o(.text.OC4Config)
    [Anonymous Symbol]                       0x08001c88   Section        0  py32f0xx_ll_tim.o(.text.OC4Config)
    __arm_cp.16_0                            0x08001cf8   Number         4  py32f0xx_ll_tim.o(.text.OC4Config)
    __arm_cp.16_1                            0x08001cfc   Number         4  py32f0xx_ll_tim.o(.text.OC4Config)
    __arm_cp.16_2                            0x08001d00   Number         4  py32f0xx_ll_tim.o(.text.OC4Config)
    [Anonymous Symbol]                       0x08001d04   Section        0  py32f0xx_it.o(.text.PendSV_Handler)
    [Anonymous Symbol]                       0x08001d08   Section        0  py32f0xx_ll_rcc.o(.text.RCC_GetHCLKClockFreq)
    __arm_cp.9_0                             0x08001d24   Number         4  py32f0xx_ll_rcc.o(.text.RCC_GetHCLKClockFreq)
    [Anonymous Symbol]                       0x08001d28   Section        0  py32f0xx_ll_rcc.o(.text.RCC_GetPCLK1ClockFreq)
    __arm_cp.10_0                            0x08001d44   Number         4  py32f0xx_ll_rcc.o(.text.RCC_GetPCLK1ClockFreq)
    [Anonymous Symbol]                       0x08001d48   Section        0  py32f0xx_ll_rcc.o(.text.RCC_GetSystemClockFreq)
    __arm_cp.8_0                             0x08001d90   Number         4  py32f0xx_ll_rcc.o(.text.RCC_GetSystemClockFreq)
    __arm_cp.8_1                             0x08001d94   Number         4  py32f0xx_ll_rcc.o(.text.RCC_GetSystemClockFreq)
    __arm_cp.8_2                             0x08001d98   Number         4  py32f0xx_ll_rcc.o(.text.RCC_GetSystemClockFreq)
    [Anonymous Symbol]                       0x08001d9c   Section        0  py32f0xx_ll_rcc.o(.text.RCC_PLL_GetFreqDomain_SYS)
    __arm_cp.14_0                            0x08001db4   Number         4  py32f0xx_ll_rcc.o(.text.RCC_PLL_GetFreqDomain_SYS)
    [Anonymous Symbol]                       0x08001db8   Section        0  py32f0xx_it.o(.text.SVC_Handler)
    [Anonymous Symbol]                       0x08001dbc   Section        0  sw6306.o(.text.SW6306_ADCLoad)
    __arm_cp.5_0                             0x08001ec8   Number         4  sw6306.o(.text.SW6306_ADCLoad)
    __arm_cp.5_2                             0x08001ecc   Number         4  sw6306.o(.text.SW6306_ADCLoad)
    [Anonymous Symbol]                       0x08001ed0   Section        0  sw6306.o(.text.SW6306_ADCRead)
    __arm_cp.4_0                             0x08001f34   Number         4  sw6306.o(.text.SW6306_ADCRead)
    [Anonymous Symbol]                       0x08001f38   Section        0  sw6306.o(.text.SW6306_ByteModify)
    __arm_cp.3_0                             0x08001f94   Number         4  sw6306.o(.text.SW6306_ByteModify)
    [Anonymous Symbol]                       0x08001f98   Section        0  sw6306.o(.text.SW6306_ByteRead)
    __arm_cp.1_0                             0x08001fe4   Number         4  sw6306.o(.text.SW6306_ByteRead)
    [Anonymous Symbol]                       0x08001fe8   Section        0  sw6306.o(.text.SW6306_ByteWrite)
    [Anonymous Symbol]                       0x08002014   Section        0  sw6306.o(.text.SW6306_CapacityLoad)
    __arm_cp.38_0                            0x080020d0   Number         4  sw6306.o(.text.SW6306_CapacityLoad)
    __arm_cp.38_1                            0x080020d4   Number         4  sw6306.o(.text.SW6306_CapacityLoad)
    [Anonymous Symbol]                       0x080020d8   Section        0  sw6306.o(.text.SW6306_Click)
    __arm_cp.42_0                            0x08002118   Number         4  sw6306.o(.text.SW6306_Click)
    [Anonymous Symbol]                       0x0800211c   Section        0  sw6306.o(.text.SW6306_ForceOff)
    __arm_cp.43_0                            0x08002170   Number         4  sw6306.o(.text.SW6306_ForceOff)
    [Anonymous Symbol]                       0x08002174   Section        0  sw6306.o(.text.SW6306_Init)
    __arm_cp.6_0                             0x0800248c   Number         4  sw6306.o(.text.SW6306_Init)
    __arm_cp.6_1                             0x08002490   Number         4  sw6306.o(.text.SW6306_Init)
    [Anonymous Symbol]                       0x08002494   Section        0  sw6306.o(.text.SW6306_IsBatteryDepleted)
    __arm_cp.30_0                            0x080024a0   Number         4  sw6306.o(.text.SW6306_IsBatteryDepleted)
    [Anonymous Symbol]                       0x080024a4   Section        0  sw6306.o(.text.SW6306_IsCharging)
    [Anonymous Symbol]                       0x080024b0   Section        0  sw6306.o(.text.SW6306_IsDischarging)
    [Anonymous Symbol]                       0x080024bc   Section        0  sw6306.o(.text.SW6306_IsFullCharged)
    [Anonymous Symbol]                       0x080024c8   Section        0  sw6306.o(.text.SW6306_IsInitialized)
    [Anonymous Symbol]                       0x080024f0   Section        0  sw6306.o(.text.SW6306_IsOverHeated)
    [Anonymous Symbol]                       0x08002508   Section        0  sw6306.o(.text.SW6306_IsPortA1ON)
    [Anonymous Symbol]                       0x08002514   Section        0  sw6306.o(.text.SW6306_IsPortA2ON)
    [Anonymous Symbol]                       0x08002520   Section        0  sw6306.o(.text.SW6306_IsPortC1ON)
    [Anonymous Symbol]                       0x0800252c   Section        0  sw6306.o(.text.SW6306_IsPortC2ON)
    [Anonymous Symbol]                       0x08002538   Section        0  sw6306.o(.text.SW6306_LPSet)
    __arm_cp.45_0                            0x0800257c   Number         4  sw6306.o(.text.SW6306_LPSet)
    [Anonymous Symbol]                       0x08002580   Section        0  sw6306.o(.text.SW6306_PortStatusLoad)
    __arm_cp.14_0                            0x0800261c   Number         4  sw6306.o(.text.SW6306_PortStatusLoad)
    [Anonymous Symbol]                       0x08002620   Section        0  sw6306.o(.text.SW6306_PowerLoad)
    __arm_cp.19_0                            0x08002710   Number         4  sw6306.o(.text.SW6306_PowerLoad)
    [Anonymous Symbol]                       0x08002714   Section        0  sw6306.o(.text.SW6306_ReadCapacity)
    [Anonymous Symbol]                       0x0800271c   Section        0  sw6306.o(.text.SW6306_ReadIBAT)
    [Anonymous Symbol]                       0x08002724   Section        0  sw6306.o(.text.SW6306_ReadIBUS)
    [Anonymous Symbol]                       0x0800272c   Section        0  sw6306.o(.text.SW6306_ReadTCHIP)
    __arm_cp.12_1                            0x0800274c   Number         4  sw6306.o(.text.SW6306_ReadTCHIP)
    __arm_cp.12_2                            0x08002750   Number         4  sw6306.o(.text.SW6306_ReadTCHIP)
    __arm_cp.12_3                            0x08002754   Number         4  sw6306.o(.text.SW6306_ReadTCHIP)
    [Anonymous Symbol]                       0x08002758   Section        0  sw6306.o(.text.SW6306_ReadTNTC)
    [Anonymous Symbol]                       0x08002768   Section        0  sw6306.o(.text.SW6306_ReadVBAT)
    [Anonymous Symbol]                       0x08002770   Section        0  sw6306.o(.text.SW6306_ReadVBUS)
    [Anonymous Symbol]                       0x08002778   Section        0  sw6306.o(.text.SW6306_RegsetSwitch)
    __arm_cp.2_0                             0x080027dc   Number         4  sw6306.o(.text.SW6306_RegsetSwitch)
    __arm_cp.2_1                             0x080027e0   Number         4  sw6306.o(.text.SW6306_RegsetSwitch)
    [Anonymous Symbol]                       0x080027e4   Section        0  sw6306.o(.text.SW6306_StatusLoad)
    __arm_cp.24_0                            0x080028e0   Number         4  sw6306.o(.text.SW6306_StatusLoad)
    __arm_cp.24_1                            0x080028e4   Number         4  sw6306.o(.text.SW6306_StatusLoad)
    [Anonymous Symbol]                       0x080028e8   Section        0  sw6306.o(.text.SW6306_Unlock)
    __arm_cp.44_0                            0x08002978   Number         4  sw6306.o(.text.SW6306_Unlock)
    [Anonymous Symbol]                       0x0800297c   Section        0  bsp_py32f030x6.o(.text.SysInit)
    [Anonymous Symbol]                       0x080029a4   Section        0  py32f0xx_it.o(.text.SysTick_Handler)
    __arm_cp.4_0                             0x080029b0   Number         4  py32f0xx_it.o(.text.SysTick_Handler)
    [Anonymous Symbol]                       0x080029b4   Section        0  system_py32f0xx.o(.text.SystemInit)
    __arm_cp.1_0                             0x080029d4   Number         4  system_py32f0xx.o(.text.SystemInit)
    __arm_cp.1_1                             0x080029d8   Number         4  system_py32f0xx.o(.text.SystemInit)
    __arm_cp.1_2                             0x080029dc   Number         4  system_py32f0xx.o(.text.SystemInit)
    __arm_cp.1_3                             0x080029e0   Number         4  system_py32f0xx.o(.text.SystemInit)
    [Anonymous Symbol]                       0x080029e4   Section        0  py32f0xx_bsp_usart.o(.text.USART1_IRQHandler)
    __arm_cp.28_6                            0x08002a8c   Number         4  py32f0xx_bsp_usart.o(.text.USART1_IRQHandler)
    [Anonymous Symbol]                       0x08002a90   Section        0  py32f0xx_bsp_usart.o(.text.USART_bufread)
    __arm_cp.27_2                            0x08002ad8   Number         4  py32f0xx_bsp_usart.o(.text.USART_bufread)
    [Anonymous Symbol]                       0x08002adc   Section        0  py32f0xx_bsp_usart.o(.text.USART_bufsend)
    __arm_cp.20_0                            0x08002b50   Number         4  py32f0xx_bsp_usart.o(.text.USART_bufsend)
    __arm_cp.20_1                            0x08002b54   Number         4  py32f0xx_bsp_usart.o(.text.USART_bufsend)
    __arm_cp.20_2                            0x08002b58   Number         4  py32f0xx_bsp_usart.o(.text.USART_bufsend)
    [Anonymous Symbol]                       0x08002b5c   Section        0  py32f0xx_bsp_usart.o(.text.USART_getvalidnum)
    __arm_cp.25_0                            0x08002b78   Number         4  py32f0xx_bsp_usart.o(.text.USART_getvalidnum)
    __arm_cp.25_1                            0x08002b7c   Number         4  py32f0xx_bsp_usart.o(.text.USART_getvalidnum)
    __NVIC_EnableIRQ                         0x08002b81   Thumb Code    16  py32f0xx_bsp_exti.o(.text.__NVIC_EnableIRQ)
    [Anonymous Symbol]                       0x08002b80   Section        0  py32f0xx_bsp_exti.o(.text.__NVIC_EnableIRQ)
    __NVIC_EnableIRQ                         0x08002b91   Thumb Code    12  py32f0xx_bsp_i2c.o(.text.__NVIC_EnableIRQ)
    [Anonymous Symbol]                       0x08002b90   Section        0  py32f0xx_bsp_i2c.o(.text.__NVIC_EnableIRQ)
    __NVIC_EnableIRQ                         0x08002b9d   Thumb Code    16  py32f0xx_bsp_usart.o(.text.__NVIC_EnableIRQ)
    [Anonymous Symbol]                       0x08002b9c   Section        0  py32f0xx_bsp_usart.o(.text.__NVIC_EnableIRQ)
    __arm_cp.19_0                            0x08002ba8   Number         4  py32f0xx_bsp_usart.o(.text.__NVIC_EnableIRQ)
    __NVIC_SetPriority                       0x08002bad   Thumb Code    28  py32f0xx_bsp_exti.o(.text.__NVIC_SetPriority)
    [Anonymous Symbol]                       0x08002bac   Section        0  py32f0xx_bsp_exti.o(.text.__NVIC_SetPriority)
    __arm_cp.2_0                             0x08002bc4   Number         4  py32f0xx_bsp_exti.o(.text.__NVIC_SetPriority)
    __NVIC_SetPriority                       0x08002bc9   Thumb Code    20  py32f0xx_bsp_i2c.o(.text.__NVIC_SetPriority)
    [Anonymous Symbol]                       0x08002bc8   Section        0  py32f0xx_bsp_i2c.o(.text.__NVIC_SetPriority)
    __arm_cp.7_0                             0x08002bd8   Number         4  py32f0xx_bsp_i2c.o(.text.__NVIC_SetPriority)
    __NVIC_SetPriority                       0x08002bdd   Thumb Code    24  py32f0xx_bsp_usart.o(.text.__NVIC_SetPriority)
    [Anonymous Symbol]                       0x08002bdc   Section        0  py32f0xx_bsp_usart.o(.text.__NVIC_SetPriority)
    __arm_cp.18_0                            0x08002bf0   Number         4  py32f0xx_bsp_usart.o(.text.__NVIC_SetPriority)
    __NVIC_SystemReset                       0x08002bf5   Thumb Code    28  main.o(.text.__NVIC_SystemReset)
    [Anonymous Symbol]                       0x08002bf4   Section        0  main.o(.text.__NVIC_SystemReset)
    __arm_cp.1_0                             0x08002c08   Number         4  main.o(.text.__NVIC_SystemReset)
    __arm_cp.1_1                             0x08002c0c   Number         4  main.o(.text.__NVIC_SystemReset)
    [Anonymous Symbol]                       0x08002c10   Section        0  main.o(.text.main)
    __arm_cp.7_0                             0x08002ca8   Number         4  main.o(.text.main)
    __arm_cp.7_4                             0x08002cf8   Number         4  main.o(.text.main)
    __arm_cp.7_5                             0x08002cfc   Number         4  main.o(.text.main)
    __arm_cp.7_6                             0x08002d00   Number         4  main.o(.text.main)
    __arm_cp.7_7                             0x08002d04   Number         4  main.o(.text.main)
    [Anonymous Symbol]                       0x08002d08   Section        0  main.o(.text.thread_app)
    __arm_cp.0_0                             0x08003028   Number         4  main.o(.text.thread_app)
    __arm_cp.0_1                             0x0800302c   Number         4  main.o(.text.thread_app)
    __arm_cp.0_2                             0x08003030   Number         4  main.o(.text.thread_app)
    __arm_cp.0_3                             0x08003034   Number         4  main.o(.text.thread_app)
    __arm_cp.0_11                            0x080030cc   Number         4  main.o(.text.thread_app)
    __arm_cp.0_12                            0x080030d0   Number         4  main.o(.text.thread_app)
    __arm_cp.0_13                            0x080030d4   Number         4  main.o(.text.thread_app)
    __arm_cp.0_14                            0x080030d8   Number         4  main.o(.text.thread_app)
    __arm_cp.0_15                            0x080030dc   Number         4  main.o(.text.thread_app)
    __arm_cp.0_16                            0x080030e0   Number         4  main.o(.text.thread_app)
    __arm_cp.0_17                            0x080030e4   Number         4  main.o(.text.thread_app)
    __arm_cp.0_18                            0x080030e8   Number         4  main.o(.text.thread_app)
    __arm_cp.0_19                            0x080030ec   Number         4  main.o(.text.thread_app)
    __arm_cp.0_23                            0x080030f0   Number         4  main.o(.text.thread_app)
    [Anonymous Symbol]                       0x080030f4   Section        0  main.o(.text.thread_echo)
    [Anonymous Symbol]                       0x0800313c   Section        0  main.o(.text.thread_key)
    __arm_cp.3_0                             0x080032d8   Number         4  main.o(.text.thread_key)
    __arm_cp.3_1                             0x080032dc   Number         4  main.o(.text.thread_key)
    __arm_cp.3_2                             0x080032e0   Number         4  main.o(.text.thread_key)
    __arm_cp.3_3                             0x080032e4   Number         4  main.o(.text.thread_key)
    __arm_cp.3_4                             0x080032e8   Number         4  main.o(.text.thread_key)
    __arm_cp.3_5                             0x080032ec   Number         4  main.o(.text.thread_key)
    __arm_cp.3_7                             0x080032fc   Number         4  main.o(.text.thread_key)
    __arm_cp.3_10                            0x0800333c   Number         4  main.o(.text.thread_key)
    __arm_cp.3_11                            0x08003340   Number         4  main.o(.text.thread_key)
    __arm_cp.3_13                            0x08003358   Number         4  main.o(.text.thread_key)
    __arm_cp.3_14                            0x0800335c   Number         4  main.o(.text.thread_key)
    __arm_cp.3_15                            0x08003360   Number         4  main.o(.text.thread_key)
    [Anonymous Symbol]                       0x08003364   Section        0  main.o(.text.thread_trig)
    __arm_cp.6_0                             0x080033a0   Number         4  main.o(.text.thread_trig)
    __arm_cp.6_2                             0x080033bc   Number         4  main.o(.text.thread_trig)
    [Anonymous Symbol]                       0x080033c0   Section        0  py32f0xx_bsp_usart.o(.text.uprintf)
    i.__0vsprintf                            0x080033ec   Section        0  printfa.o(i.__0vsprintf)
    i.__ARM_clz                              0x08003410   Section        0  depilogue.o(i.__ARM_clz)
    i.__scatterload_copy                     0x0800343e   Section       14  handlers.o(i.__scatterload_copy)
    i.__scatterload_null                     0x0800344c   Section        2  handlers.o(i.__scatterload_null)
    i.__scatterload_zeroinit                 0x0800344e   Section       14  handlers.o(i.__scatterload_zeroinit)
    _fp_digits                               0x0800345d   Thumb Code   344  printfa.o(i._fp_digits)
    i._fp_digits                             0x0800345c   Section        0  printfa.o(i._fp_digits)
    _printf_core                             0x080035d1   Thumb Code  1754  printfa.o(i._printf_core)
    i._printf_core                           0x080035d0   Section        0  printfa.o(i._printf_core)
    _printf_post_padding                     0x08003cbd   Thumb Code    32  printfa.o(i._printf_post_padding)
    i._printf_post_padding                   0x08003cbc   Section        0  printfa.o(i._printf_post_padding)
    _printf_pre_padding                      0x08003cdd   Thumb Code    44  printfa.o(i._printf_pre_padding)
    i._printf_pre_padding                    0x08003cdc   Section        0  printfa.o(i._printf_pre_padding)
    _sputc                                   0x08003d09   Thumb Code    10  printfa.o(i._sputc)
    i._sputc                                 0x08003d08   Section        0  printfa.o(i._sputc)
    .L.str.15                                0x08003d94   Data          26  main.o(.rodata.str1.1)
    [Anonymous Symbol]                       0x08003d94   Section        0  main.o(.rodata.str1.1)
    .L.str.9                                 0x08003dae   Data          15  main.o(.rodata.str1.1)
    .L.str.7                                 0x08003dbd   Data          23  main.o(.rodata.str1.1)
    .L.str.8                                 0x08003dd4   Data          23  main.o(.rodata.str1.1)
    .L.str.11                                0x08003deb   Data          22  main.o(.rodata.str1.1)
    .L.str.13                                0x08003e01   Data          22  main.o(.rodata.str1.1)
    .L.str.14                                0x08003e17   Data          22  main.o(.rodata.str1.1)
    .L.str.10                                0x08003e2d   Data          22  main.o(.rodata.str1.1)
    .L.str.12                                0x08003e43   Data          22  main.o(.rodata.str1.1)
    rx_rd_index                              0x200000c4   Data           1  py32f0xx_bsp_usart.o(.data.rx_rd_index)
    [Anonymous Symbol]                       0x200000c4   Section        0  py32f0xx_bsp_usart.o(.data.rx_rd_index)
    tx_rd_index                              0x200000c5   Data           1  py32f0xx_bsp_usart.o(.data.tx_rd_index)
    [Anonymous Symbol]                       0x200000c5   Section        0  py32f0xx_bsp_usart.o(.data.tx_rd_index)
    KeyValue_Array                           0x200000d8   Data           5  debounce_key.o(.bss.KeyValue_Array)
    [Anonymous Symbol]                       0x200000d8   Section        0  debounce_key.o(.bss.KeyValue_Array)
    SW6306_ADCLoad.swld_steps                0x200000dd   Data           1  sw6306.o(.bss.SW6306_ADCLoad.swld_steps)
    [Anonymous Symbol]                       0x200000dd   Section        0  sw6306.o(.bss.SW6306_ADCLoad.swld_steps)
    SW6306_ADCRead.sw_steps                  0x200000de   Data           1  sw6306.o(.bss.SW6306_ADCRead.sw_steps)
    [Anonymous Symbol]                       0x200000de   Section        0  sw6306.o(.bss.SW6306_ADCRead.sw_steps)
    SW6306_ByteModify.swmd_steps             0x200000df   Data           1  sw6306.o(.bss.SW6306_ByteModify.swmd_steps)
    [Anonymous Symbol]                       0x200000df   Section        0  sw6306.o(.bss.SW6306_ByteModify.swmd_steps)
    SW6306_ByteRead.swrd_steps               0x200000e0   Data           1  sw6306.o(.bss.SW6306_ByteRead.swrd_steps)
    [Anonymous Symbol]                       0x200000e0   Section        0  sw6306.o(.bss.SW6306_ByteRead.swrd_steps)
    SW6306_CapacityLoad.steps                0x200000e1   Data           1  sw6306.o(.bss.SW6306_CapacityLoad.steps)
    [Anonymous Symbol]                       0x200000e1   Section        0  sw6306.o(.bss.SW6306_CapacityLoad.steps)
    SW6306_Click.steps                       0x200000e2   Data           1  sw6306.o(.bss.SW6306_Click.steps)
    [Anonymous Symbol]                       0x200000e2   Section        0  sw6306.o(.bss.SW6306_Click.steps)
    SW6306_ForceOff.steps                    0x200000e3   Data           1  sw6306.o(.bss.SW6306_ForceOff.steps)
    [Anonymous Symbol]                       0x200000e3   Section        0  sw6306.o(.bss.SW6306_ForceOff.steps)
    SW6306_Init.steps                        0x200000e4   Data           1  sw6306.o(.bss.SW6306_Init.steps)
    [Anonymous Symbol]                       0x200000e4   Section        0  sw6306.o(.bss.SW6306_Init.steps)
    SW6306_LPSet.steps                       0x200000e5   Data           1  sw6306.o(.bss.SW6306_LPSet.steps)
    [Anonymous Symbol]                       0x200000e5   Section        0  sw6306.o(.bss.SW6306_LPSet.steps)
    SW6306_PortStatusLoad.steps              0x200000e6   Data           1  sw6306.o(.bss.SW6306_PortStatusLoad.steps)
    [Anonymous Symbol]                       0x200000e6   Section        0  sw6306.o(.bss.SW6306_PortStatusLoad.steps)
    SW6306_PowerLoad.steps                   0x200000e7   Data           1  sw6306.o(.bss.SW6306_PowerLoad.steps)
    [Anonymous Symbol]                       0x200000e7   Section        0  sw6306.o(.bss.SW6306_PowerLoad.steps)
    SW6306_RegsetSwitch.steps                0x200000e8   Data           1  sw6306.o(.bss.SW6306_RegsetSwitch.steps)
    [Anonymous Symbol]                       0x200000e8   Section        0  sw6306.o(.bss.SW6306_RegsetSwitch.steps)
    SW6306_Status                            0x200000ec   Data          48  sw6306.o(.bss.SW6306_Status)
    [Anonymous Symbol]                       0x200000ec   Section        0  sw6306.o(.bss.SW6306_Status)
    SW6306_StatusLoad.steps                  0x2000011c   Data           1  sw6306.o(.bss.SW6306_StatusLoad.steps)
    [Anonymous Symbol]                       0x2000011c   Section        0  sw6306.o(.bss.SW6306_StatusLoad.steps)
    SW6306_Unlock.steps                      0x2000011d   Data           1  sw6306.o(.bss.SW6306_Unlock.steps)
    [Anonymous Symbol]                       0x2000011d   Section        0  sw6306.o(.bss.SW6306_Unlock.steps)
    USART_rx_buffer                          0x2000011e   Data          32  py32f0xx_bsp_usart.o(.bss.USART_rx_buffer)
    [Anonymous Symbol]                       0x2000011e   Section        0  py32f0xx_bsp_usart.o(.bss.USART_rx_buffer)
    USART_tx_buffer                          0x2000013e   Data         256  py32f0xx_bsp_usart.o(.bss.USART_tx_buffer)
    [Anonymous Symbol]                       0x2000013e   Section        0  py32f0xx_bsp_usart.o(.bss.USART_tx_buffer)
    rx_wr_index                              0x20000259   Data           1  py32f0xx_bsp_usart.o(.bss.rx_wr_index)
    [Anonymous Symbol]                       0x20000259   Section        0  py32f0xx_bsp_usart.o(.bss.rx_wr_index)
    thread_app.endmillis                     0x2000025c   Data           4  main.o(.bss.thread_app.endmillis)
    [Anonymous Symbol]                       0x2000025c   Section        0  main.o(.bss.thread_app.endmillis)
    thread_key.cd_reset                      0x20000260   Data           2  main.o(.bss.thread_key.cd_reset)
    [Anonymous Symbol]                       0x20000260   Section        0  main.o(.bss.thread_key.cd_reset)
    thread_key.cnt                           0x20000262   Data           1  main.o(.bss.thread_key.cnt)
    [Anonymous Symbol]                       0x20000262   Section        0  main.o(.bss.thread_key.cnt)
    thread_key.endmillis                     0x20000264   Data           4  main.o(.bss.thread_key.endmillis)
    [Anonymous Symbol]                       0x20000264   Section        0  main.o(.bss.thread_key.endmillis)
    thread_key.holding                       0x20000268   Data           1  main.o(.bss.thread_key.holding)
    [Anonymous Symbol]                       0x20000268   Section        0  main.o(.bss.thread_key.holding)
    thread_key.leddir                        0x20000269   Data           1  main.o(.bss.thread_key.leddir)
    [Anonymous Symbol]                       0x20000269   Section        0  main.o(.bss.thread_key.leddir)
    thread_key.ledind                        0x2000026a   Data           1  main.o(.bss.thread_key.ledind)
    [Anonymous Symbol]                       0x2000026a   Section        0  main.o(.bss.thread_key.ledind)
    thread_key.ledsta                        0x2000026b   Data           1  main.o(.bss.thread_key.ledsta)
    [Anonymous Symbol]                       0x2000026b   Section        0  main.o(.bss.thread_key.ledsta)
    thread_key.step                          0x2000026c   Data           1  main.o(.bss.thread_key.step)
    [Anonymous Symbol]                       0x2000026c   Section        0  main.o(.bss.thread_key.step)
    tx_wr_index                              0x2000026d   Data           1  py32f0xx_bsp_usart.o(.bss.tx_wr_index)
    [Anonymous Symbol]                       0x2000026d   Section        0  py32f0xx_bsp_usart.o(.bss.tx_wr_index)
    STACK                                    0x20000270   Section     1024  startup_py32f030xx.o(STACK)

    Global Symbols

    Symbol Name                              Value     Ov Type        Size  Object(Section)

    BuildAttributes$$THM_ISAv3M$S$PE$A:L22$X:L11$S22$IEEE1$IW$~IW$USESV6$~STKCKD$USESV7$~SHL$OTIME$ROPI$EBA8$MICROLIB$REQ8$PRES8$EABIv2 0x00000000   Number         0  anon$$obj.o ABSOLUTE
    __cpp_initialize__aeabi_                  - Undefined Weak Reference
    __cxa_finalize                            - Undefined Weak Reference
    __decompress                              - Undefined Weak Reference
    _clock_init                               - Undefined Weak Reference
    _microlib_exit                            - Undefined Weak Reference
    __Vectors_Size                           0x000000c0   Number         0  startup_py32f030xx.o ABSOLUTE
    __Vectors                                0x08000000   Data           4  startup_py32f030xx.o(RESET)
    __Vectors_End                            0x080000c0   Data           0  startup_py32f030xx.o(RESET)
    __main                                   0x080000c1   Thumb Code     0  entry.o(.ARM.Collect$$$$00000000)
    _main_stk                                0x080000c1   Thumb Code     0  entry2.o(.ARM.Collect$$$$00000001)
    _main_scatterload                        0x080000c5   Thumb Code     0  entry5.o(.ARM.Collect$$$$00000004)
    __main_after_scatterload                 0x080000c9   Thumb Code     0  entry5.o(.ARM.Collect$$$$00000004)
    _main_clock                              0x080000c9   Thumb Code     0  entry7b.o(.ARM.Collect$$$$00000008)
    _main_cpp_init                           0x080000c9   Thumb Code     0  entry8b.o(.ARM.Collect$$$$0000000A)
    _main_init                               0x080000c9   Thumb Code     0  entry9a.o(.ARM.Collect$$$$0000000B)
    __rt_final_cpp                           0x080000d1   Thumb Code     0  entry10a.o(.ARM.Collect$$$$0000000D)
    __rt_final_exit                          0x080000d1   Thumb Code     0  entry11a.o(.ARM.Collect$$$$0000000F)
    Reset_Handler                            0x080000d5   Thumb Code     8  startup_py32f030xx.o(.text)
    ADC_COMP_IRQHandler                      0x080000e7   Thumb Code     0  startup_py32f030xx.o(.text)
    DMA1_Channel1_IRQHandler                 0x080000e7   Thumb Code     0  startup_py32f030xx.o(.text)
    DMA1_Channel2_3_IRQHandler               0x080000e7   Thumb Code     0  startup_py32f030xx.o(.text)
    EXTI0_1_IRQHandler                       0x080000e7   Thumb Code     0  startup_py32f030xx.o(.text)
    FLASH_IRQHandler                         0x080000e7   Thumb Code     0  startup_py32f030xx.o(.text)
    LED_IRQHandler                           0x080000e7   Thumb Code     0  startup_py32f030xx.o(.text)
    LPTIM1_IRQHandler                        0x080000e7   Thumb Code     0  startup_py32f030xx.o(.text)
    PVD_IRQHandler                           0x080000e7   Thumb Code     0  startup_py32f030xx.o(.text)
    RCC_IRQHandler                           0x080000e7   Thumb Code     0  startup_py32f030xx.o(.text)
    RTC_IRQHandler                           0x080000e7   Thumb Code     0  startup_py32f030xx.o(.text)
    SPI1_IRQHandler                          0x080000e7   Thumb Code     0  startup_py32f030xx.o(.text)
    SPI2_IRQHandler                          0x080000e7   Thumb Code     0  startup_py32f030xx.o(.text)
    TIM14_IRQHandler                         0x080000e7   Thumb Code     0  startup_py32f030xx.o(.text)
    TIM16_IRQHandler                         0x080000e7   Thumb Code     0  startup_py32f030xx.o(.text)
    TIM17_IRQHandler                         0x080000e7   Thumb Code     0  startup_py32f030xx.o(.text)
    TIM1_BRK_UP_TRG_COM_IRQHandler           0x080000e7   Thumb Code     0  startup_py32f030xx.o(.text)
    TIM1_CC_IRQHandler                       0x080000e7   Thumb Code     0  startup_py32f030xx.o(.text)
    TIM3_IRQHandler                          0x080000e7   Thumb Code     0  startup_py32f030xx.o(.text)
    USART2_IRQHandler                        0x080000e7   Thumb Code     0  startup_py32f030xx.o(.text)
    WWDG_IRQHandler                          0x080000e7   Thumb Code     0  startup_py32f030xx.o(.text)
    __aeabi_dmul                             0x080000f1   Thumb Code   202  dmul.o(.text)
    __aeabi_ddiv                             0x080001c1   Thumb Code   234  ddiv.o(.text)
    __aeabi_i2f                              0x080002b1   Thumb Code    22  fflti.o(.text)
    __aeabi_f2d                              0x080002c7   Thumb Code    40  f2d.o(.text)
    __aeabi_d2f                              0x080002ef   Thumb Code    56  d2f.o(.text)
    __aeabi_uidiv                            0x08000327   Thumb Code     0  uidiv_div0.o(.text)
    __aeabi_uidivmod                         0x08000327   Thumb Code    62  uidiv_div0.o(.text)
    __aeabi_uldivmod                         0x08000365   Thumb Code    96  uldiv.o(.text)
    __I$use$fp                               0x080003c5   Thumb Code     0  iusefp.o(.text)
    _float_round                             0x080003c5   Thumb Code    16  fepilogue.o(.text)
    _float_epilogue                          0x080003d5   Thumb Code   114  fepilogue.o(.text)
    _double_round                            0x08000447   Thumb Code    26  depilogue.o(.text)
    _double_epilogue                         0x08000461   Thumb Code   164  depilogue.o(.text)
    __aeabi_dadd                             0x08000505   Thumb Code   328  dadd.o(.text)
    __aeabi_dsub                             0x0800064d   Thumb Code    12  dadd.o(.text)
    __aeabi_drsub                            0x08000659   Thumb Code    12  dadd.o(.text)
    __aeabi_d2ulz                            0x08000669   Thumb Code    54  dfixul.o(.text)
    __aeabi_cdrcmple                         0x080006a9   Thumb Code    38  cdrcmple.o(.text)
    __scatterload                            0x080006d1   Thumb Code    28  init.o(.text)
    __scatterload_rt2                        0x080006d1   Thumb Code     0  init.o(.text)
    __aeabi_llsl                             0x080006f5   Thumb Code    32  llshl.o(.text)
    _ll_shift_l                              0x080006f5   Thumb Code     0  llshl.o(.text)
    __aeabi_llsr                             0x08000715   Thumb Code    34  llushr.o(.text)
    _ll_ushift_r                             0x08000715   Thumb Code     0  llushr.o(.text)
    __aeabi_lasr                             0x08000737   Thumb Code    38  llsshr.o(.text)
    _ll_sshift_r                             0x08000737   Thumb Code     0  llsshr.o(.text)
    main                                     0x0800075d   Thumb Code    44  system_py32f0xx.o(.text.$Sub$$main)
    ASYNC_I2C_Receive                        0x08000789   Thumb Code    92  py32f0xx_bsp_i2c.o(.text.ASYNC_I2C_Receive)
    ASYNC_I2C_Transmit                       0x080007e5   Thumb Code   100  py32f0xx_bsp_i2c.o(.text.ASYNC_I2C_Transmit)
    BSP_EXTI_Config                          0x08000849   Thumb Code    92  py32f0xx_bsp_exti.o(.text.BSP_EXTI_Config)
    BSP_GPIO_Config                          0x080008a5   Thumb Code   128  py32f0xx_bsp_gpio.o(.text.BSP_GPIO_Config)
    BSP_I2C_Config                           0x08000925   Thumb Code   136  py32f0xx_bsp_i2c.o(.text.BSP_I2C_Config)
    BSP_PWMChannelConfig                     0x080009ad   Thumb Code    60  py32f0xx_bsp_tim.o(.text.BSP_PWMChannelConfig)
    BSP_PWR_Config                           0x080009e9   Thumb Code    24  py32f0xx_bsp_pwr.o(.text.BSP_PWR_Config)
    BSP_SystemClockConfig                    0x08000a01   Thumb Code   104  py32f0xx_bsp_rcc.o(.text.BSP_SystemClockConfig)
    BSP_TIM_config                           0x08000a69   Thumb Code    60  py32f0xx_bsp_tim.o(.text.BSP_TIM_config)
    BSP_USART_Config                         0x08000aa5   Thumb Code   132  py32f0xx_bsp_usart.o(.text.BSP_USART_Config)
    EXTI2_3_IRQHandler                       0x08000b29   Thumb Code    40  py32f0xx_bsp_exti.o(.text.EXTI2_3_IRQHandler)
    EXTI4_15_IRQHandler                      0x08000b51   Thumb Code    44  py32f0xx_bsp_exti.o(.text.EXTI4_15_IRQHandler)
    HardFault_Handler                        0x08000b7d   Thumb Code     2  py32f0xx_it.o(.text.HardFault_Handler)
    I2C1_IRQHandler                          0x08000b81   Thumb Code   592  py32f0xx_bsp_i2c.o(.text.I2C1_IRQHandler)
    I2C_Diagnosis                            0x08000dd1   Thumb Code    24  py32f0xx_bsp_i2c.o(.text.I2C_Diagnosis)
    I2C_Unlock                               0x08000de9   Thumb Code   124  py32f0xx_bsp_i2c.o(.text.I2C_Unlock)
    Key_DebounceService_10ms                 0x08000e71   Thumb Code    16  debounce_key.o(.text.Key_DebounceService_10ms)
    Key_EdgeDetect                           0x08000e81   Thumb Code    88  debounce_key.o(.text.Key_EdgeDetect)
    Key_Init                                 0x08000ed9   Thumb Code    16  debounce_key.o(.text.Key_Init)
    Key_Scand                                0x08000ee9   Thumb Code    96  debounce_key.o(.text.Key_Scand)
    LED_PWM_Set                              0x08000f49   Thumb Code    34  py32f0xx_bsp_tim.o(.text.LED_PWM_Set)
    LL_EXTI_Init                             0x08001099   Thumb Code   152  py32f0xx_ll_exti.o(.text.LL_EXTI_Init)
    LL_GPIO_Init                             0x08001179   Thumb Code   128  py32f0xx_ll_gpio.o(.text.LL_GPIO_Init)
    LL_I2C_Init                              0x08001501   Thumb Code    58  py32f0xx_ll_i2c.o(.text.LL_I2C_Init)
    LL_RCC_GetSystemClocksFreq               0x080016b5   Thumb Code    24  py32f0xx_ll_rcc.o(.text.LL_RCC_GetSystemClocksFreq)
    LL_SetSystemCoreClock                    0x080017b1   Thumb Code    12  py32f0xx_ll_utils.o(.text.LL_SetSystemCoreClock)
    LL_TIM_Init                              0x080017e9   Thumb Code   148  py32f0xx_ll_tim.o(.text.LL_TIM_Init)
    LL_TIM_OC_Init                           0x0800187d   Thumb Code    80  py32f0xx_ll_tim.o(.text.LL_TIM_OC_Init)
    LL_mDelay                                0x08001aa9   Thumb Code    40  py32f0xx_ll_utils.o(.text.LL_mDelay)
    NMI_Handler                              0x08001ad1   Thumb Code     2  py32f0xx_it.o(.text.NMI_Handler)
    PendSV_Handler                           0x08001d05   Thumb Code     2  py32f0xx_it.o(.text.PendSV_Handler)
    RCC_GetHCLKClockFreq                     0x08001d09   Thumb Code    32  py32f0xx_ll_rcc.o(.text.RCC_GetHCLKClockFreq)
    RCC_GetPCLK1ClockFreq                    0x08001d29   Thumb Code    32  py32f0xx_ll_rcc.o(.text.RCC_GetPCLK1ClockFreq)
    RCC_GetSystemClockFreq                   0x08001d49   Thumb Code    84  py32f0xx_ll_rcc.o(.text.RCC_GetSystemClockFreq)
    RCC_PLL_GetFreqDomain_SYS                0x08001d9d   Thumb Code    28  py32f0xx_ll_rcc.o(.text.RCC_PLL_GetFreqDomain_SYS)
    SVC_Handler                              0x08001db9   Thumb Code     2  py32f0xx_it.o(.text.SVC_Handler)
    SW6306_ADCLoad                           0x08001dbd   Thumb Code   276  sw6306.o(.text.SW6306_ADCLoad)
    SW6306_ADCRead                           0x08001ed1   Thumb Code   104  sw6306.o(.text.SW6306_ADCRead)
    SW6306_ByteModify                        0x08001f39   Thumb Code    96  sw6306.o(.text.SW6306_ByteModify)
    SW6306_ByteRead                          0x08001f99   Thumb Code    80  sw6306.o(.text.SW6306_ByteRead)
    SW6306_ByteWrite                         0x08001fe9   Thumb Code    44  sw6306.o(.text.SW6306_ByteWrite)
    SW6306_CapacityLoad                      0x08002015   Thumb Code   196  sw6306.o(.text.SW6306_CapacityLoad)
    SW6306_Click                             0x080020d9   Thumb Code    68  sw6306.o(.text.SW6306_Click)
    SW6306_ForceOff                          0x0800211d   Thumb Code    88  sw6306.o(.text.SW6306_ForceOff)
    SW6306_Init                              0x08002175   Thumb Code   800  sw6306.o(.text.SW6306_Init)
    SW6306_IsBatteryDepleted                 0x08002495   Thumb Code    16  sw6306.o(.text.SW6306_IsBatteryDepleted)
    SW6306_IsCharging                        0x080024a5   Thumb Code    12  sw6306.o(.text.SW6306_IsCharging)
    SW6306_IsDischarging                     0x080024b1   Thumb Code    12  sw6306.o(.text.SW6306_IsDischarging)
    SW6306_IsFullCharged                     0x080024bd   Thumb Code    12  sw6306.o(.text.SW6306_IsFullCharged)
    SW6306_IsInitialized                     0x080024c9   Thumb Code    40  sw6306.o(.text.SW6306_IsInitialized)
    SW6306_IsOverHeated                      0x080024f1   Thumb Code    24  sw6306.o(.text.SW6306_IsOverHeated)
    SW6306_IsPortA1ON                        0x08002509   Thumb Code    12  sw6306.o(.text.SW6306_IsPortA1ON)
    SW6306_IsPortA2ON                        0x08002515   Thumb Code    12  sw6306.o(.text.SW6306_IsPortA2ON)
    SW6306_IsPortC1ON                        0x08002521   Thumb Code    12  sw6306.o(.text.SW6306_IsPortC1ON)
    SW6306_IsPortC2ON                        0x0800252d   Thumb Code    12  sw6306.o(.text.SW6306_IsPortC2ON)
    SW6306_LPSet                             0x08002539   Thumb Code    72  sw6306.o(.text.SW6306_LPSet)
    SW6306_PortStatusLoad                    0x08002581   Thumb Code   160  sw6306.o(.text.SW6306_PortStatusLoad)
    SW6306_PowerLoad                         0x08002621   Thumb Code   244  sw6306.o(.text.SW6306_PowerLoad)
    SW6306_ReadCapacity                      0x08002715   Thumb Code     8  sw6306.o(.text.SW6306_ReadCapacity)
    SW6306_ReadIBAT                          0x0800271d   Thumb Code     8  sw6306.o(.text.SW6306_ReadIBAT)
    SW6306_ReadIBUS                          0x08002725   Thumb Code     8  sw6306.o(.text.SW6306_ReadIBUS)
    SW6306_ReadTCHIP                         0x0800272d   Thumb Code    44  sw6306.o(.text.SW6306_ReadTCHIP)
    SW6306_ReadTNTC                          0x08002759   Thumb Code    16  sw6306.o(.text.SW6306_ReadTNTC)
    SW6306_ReadVBAT                          0x08002769   Thumb Code     8  sw6306.o(.text.SW6306_ReadVBAT)
    SW6306_ReadVBUS                          0x08002771   Thumb Code     8  sw6306.o(.text.SW6306_ReadVBUS)
    SW6306_RegsetSwitch                      0x08002779   Thumb Code   108  sw6306.o(.text.SW6306_RegsetSwitch)
    SW6306_StatusLoad                        0x080027e5   Thumb Code   260  sw6306.o(.text.SW6306_StatusLoad)
    SW6306_Unlock                            0x080028e9   Thumb Code   148  sw6306.o(.text.SW6306_Unlock)
    SysInit                                  0x0800297d   Thumb Code    40  bsp_py32f030x6.o(.text.SysInit)
    SysTick_Handler                          0x080029a5   Thumb Code    16  py32f0xx_it.o(.text.SysTick_Handler)
    SystemInit                               0x080029b5   Thumb Code    48  system_py32f0xx.o(.text.SystemInit)
    USART1_IRQHandler                        0x080029e5   Thumb Code   172  py32f0xx_bsp_usart.o(.text.USART1_IRQHandler)
    USART_bufread                            0x08002a91   Thumb Code    76  py32f0xx_bsp_usart.o(.text.USART_bufread)
    USART_bufsend                            0x08002add   Thumb Code   128  py32f0xx_bsp_usart.o(.text.USART_bufsend)
    USART_getvalidnum                        0x08002b5d   Thumb Code    36  py32f0xx_bsp_usart.o(.text.USART_getvalidnum)
    $Super$$main                             0x08002c11   Thumb Code   248  main.o(.text.main)
    thread_app                               0x08002d09   Thumb Code  1004  main.o(.text.thread_app)
    thread_echo                              0x080030f5   Thumb Code    70  main.o(.text.thread_echo)
    thread_key                               0x0800313d   Thumb Code   552  main.o(.text.thread_key)
    thread_trig                              0x08003365   Thumb Code    92  main.o(.text.thread_trig)
    uprintf                                  0x080033c1   Thumb Code    44  py32f0xx_bsp_usart.o(.text.uprintf)
    __0vsprintf                              0x080033ed   Thumb Code    30  printfa.o(i.__0vsprintf)
    __1vsprintf                              0x080033ed   Thumb Code     0  printfa.o(i.__0vsprintf)
    __2vsprintf                              0x080033ed   Thumb Code     0  printfa.o(i.__0vsprintf)
    __c89vsprintf                            0x080033ed   Thumb Code     0  printfa.o(i.__0vsprintf)
    vsprintf                                 0x080033ed   Thumb Code     0  printfa.o(i.__0vsprintf)
    __ARM_clz                                0x08003411   Thumb Code    46  depilogue.o(i.__ARM_clz)
    __scatterload_copy                       0x0800343f   Thumb Code    14  handlers.o(i.__scatterload_copy)
    __scatterload_null                       0x0800344d   Thumb Code     2  handlers.o(i.__scatterload_null)
    __scatterload_zeroinit                   0x0800344f   Thumb Code    14  handlers.o(i.__scatterload_zeroinit)
    AHBPrescTable                            0x08003d14   Data          64  system_py32f0xx.o(.rodata.AHBPrescTable)
    APBPrescTable                            0x08003d54   Data          32  system_py32f0xx.o(.rodata.APBPrescTable)
    HSIFreqTable                             0x08003d74   Data          32  system_py32f0xx.o(.rodata.HSIFreqTable)
    Region$$Table$$Base                      0x08003e5c   Number         0  anon$$obj.o(Region$$Table)
    Region$$Table$$Limit                     0x08003e7c   Number         0  anon$$obj.o(Region$$Table)
    VECT_SRAM_TAB                            0x20000000   Data         192  system_py32f0xx.o(.ARM.__at_0x20000000)
    SystemCoreClock                          0x200000c0   Data           4  system_py32f0xx.o(.data.SystemCoreClock)
    I2C1_Status                              0x200000c8   Data          16  py32f0xx_bsp_i2c.o(.bss.I2C1_Status)
    cd_sleep                                 0x2000023e   Data           2  main.o(.bss.cd_sleep)
    forceoff                                 0x20000240   Data           1  main.o(.bss.forceoff)
    i2cwdtovf                                0x20000244   Data           4  py32f0xx_bsp_i2c.o(.bss.i2cwdtovf)
    inttrig                                  0x20000248   Data           1  py32f0xx_bsp_exti.o(.bss.inttrig)
    keytrig                                  0x20000249   Data           1  py32f0xx_bsp_exti.o(.bss.keytrig)
    main_looping                             0x2000024a   Data           1  main.o(.bss.main_looping)
    millis                                   0x2000024c   Data           4  py32f0xx_it.o(.bss.millis)
    pt1                                      0x20000250   Data           2  main.o(.bss.pt1)
    pt2                                      0x20000252   Data           2  main.o(.bss.pt2)
    pt3                                      0x20000254   Data           2  main.o(.bss.pt3)
    pt4                                      0x20000256   Data           2  main.o(.bss.pt4)
    rx_buf_ovf                               0x20000258   Data           1  py32f0xx_bsp_usart.o(.bss.rx_buf_ovf)
    __initial_sp                             0x20000670   Data           0  startup_py32f030xx.o(STACK)



==============================================================================

Memory Map of the image

  Image Entry point : 0x080000c1

  Load Region LR_IROM1 (Base: 0x08000000, Size: 0x00003f48, Max: 0x00008000, ABSOLUTE)

    Execution Region ER_IROM1 (Exec base: 0x08000000, Load base: 0x08000000, Size: 0x00003e7c, Max: 0x00008000, ABSOLUTE)

    Exec Addr    Load Addr    Size         Type   Attr      Idx    E Section Name        Object

    0x08000000   0x08000000   0x000000c0   Data   RO            3    RESET               startup_py32f030xx.o
    0x080000c0   0x080000c0   0x00000000   Code   RO          981  * .ARM.Collect$$$$00000000  mc_p.l(entry.o)
    0x080000c0   0x080000c0   0x00000004   Code   RO         1032    .ARM.Collect$$$$00000001  mc_p.l(entry2.o)
    0x080000c4   0x080000c4   0x00000004   Code   RO         1035    .ARM.Collect$$$$00000004  mc_p.l(entry5.o)
    0x080000c8   0x080000c8   0x00000000   Code   RO         1037    .ARM.Collect$$$$00000008  mc_p.l(entry7b.o)
    0x080000c8   0x080000c8   0x00000000   Code   RO         1039    .ARM.Collect$$$$0000000A  mc_p.l(entry8b.o)
    0x080000c8   0x080000c8   0x00000008   Code   RO         1040    .ARM.Collect$$$$0000000B  mc_p.l(entry9a.o)
    0x080000d0   0x080000d0   0x00000000   Code   RO         1042    .ARM.Collect$$$$0000000D  mc_p.l(entry10a.o)
    0x080000d0   0x080000d0   0x00000000   Code   RO         1044    .ARM.Collect$$$$0000000F  mc_p.l(entry11a.o)
    0x080000d0   0x080000d0   0x00000004   Code   RO         1033    .ARM.Collect$$$$00002712  mc_p.l(entry2.o)
    0x080000d4   0x080000d4   0x0000001c   Code   RO            4    .text               startup_py32f030xx.o
    0x080000f0   0x080000f0   0x000000d0   Code   RO         1020    .text               mf_p.l(dmul.o)
    0x080001c0   0x080001c0   0x000000f0   Code   RO         1022    .text               mf_p.l(ddiv.o)
    0x080002b0   0x080002b0   0x00000016   Code   RO         1024    .text               mf_p.l(fflti.o)
    0x080002c6   0x080002c6   0x00000028   Code   RO         1028    .text               mf_p.l(f2d.o)
    0x080002ee   0x080002ee   0x00000038   Code   RO         1030    .text               mf_p.l(d2f.o)
    0x08000326   0x08000326   0x0000003e   Code   RO         1055    .text               mc_p.l(uidiv_div0.o)
    0x08000364   0x08000364   0x00000060   Code   RO         1061    .text               mc_p.l(uldiv.o)
    0x080003c4   0x080003c4   0x00000000   Code   RO         1063    .text               mc_p.l(iusefp.o)
    0x080003c4   0x080003c4   0x00000082   Code   RO         1064    .text               mf_p.l(fepilogue.o)
    0x08000446   0x08000446   0x000000be   Code   RO         1066    .text               mf_p.l(depilogue.o)
    0x08000504   0x08000504   0x00000164   Code   RO         1070    .text               mf_p.l(dadd.o)
    0x08000668   0x08000668   0x00000040   Code   RO         1072    .text               mf_p.l(dfixul.o)
    0x080006a8   0x080006a8   0x00000028   Code   RO         1074    .text               mf_p.l(cdrcmple.o)
    0x080006d0   0x080006d0   0x00000024   Code   RO         1076    .text               mc_p.l(init.o)
    0x080006f4   0x080006f4   0x00000020   Code   RO         1079    .text               mc_p.l(llshl.o)
    0x08000714   0x08000714   0x00000022   Code   RO         1081    .text               mc_p.l(llushr.o)
    0x08000736   0x08000736   0x00000026   Code   RO         1083    .text               mc_p.l(llsshr.o)
    0x0800075c   0x0800075c   0x0000002c   Code   RO           15    .text.$Sub$$main    system_py32f0xx.o
    0x08000788   0x08000788   0x0000005c   Code   RO          640    .text.ASYNC_I2C_Receive  py32f0xx_bsp_i2c.o
    0x080007e4   0x080007e4   0x00000064   Code   RO          636    .text.ASYNC_I2C_Transmit  py32f0xx_bsp_i2c.o
    0x08000848   0x08000848   0x0000005c   Code   RO          529    .text.BSP_EXTI_Config  py32f0xx_bsp_exti.o
    0x080008a4   0x080008a4   0x00000080   Code   RO          555    .text.BSP_GPIO_Config  py32f0xx_bsp_gpio.o
    0x08000924   0x08000924   0x00000088   Code   RO          568    .text.BSP_I2C_Config  py32f0xx_bsp_i2c.o
    0x080009ac   0x080009ac   0x0000003c   Code   RO          734    .text.BSP_PWMChannelConfig  py32f0xx_bsp_tim.o
    0x080009e8   0x080009e8   0x00000018   Code   RO          668    .text.BSP_PWR_Config  py32f0xx_bsp_pwr.o
    0x08000a00   0x08000a00   0x00000068   Code   RO          687    .text.BSP_SystemClockConfig  py32f0xx_bsp_rcc.o
    0x08000a68   0x08000a68   0x0000003c   Code   RO          726    .text.BSP_TIM_config  py32f0xx_bsp_tim.o
    0x08000aa4   0x08000aa4   0x00000084   Code   RO          748    .text.BSP_USART_Config  py32f0xx_bsp_usart.o
    0x08000b28   0x08000b28   0x00000028   Code   RO          543    .text.EXTI2_3_IRQHandler  py32f0xx_bsp_exti.o
    0x08000b50   0x08000b50   0x0000002c   Code   RO          537    .text.EXTI4_15_IRQHandler  py32f0xx_bsp_exti.o
    0x08000b7c   0x08000b7c   0x00000002   Code   RO           32    .text.HardFault_Handler  py32f0xx_it.o
    0x08000b7e   0x08000b7e   0x00000002   PAD
    0x08000b80   0x08000b80   0x00000250   Code   RO          642    .text.I2C1_IRQHandler  py32f0xx_bsp_i2c.o
    0x08000dd0   0x08000dd0   0x00000018   Code   RO          632    .text.I2C_Diagnosis  py32f0xx_bsp_i2c.o
    0x08000de8   0x08000de8   0x0000007c   Code   RO          570    .text.I2C_Unlock    py32f0xx_bsp_i2c.o
    0x08000e64   0x08000e64   0x0000000a   Code   RO          111    .text.KEY_GetIO     debounce_key.o
    0x08000e6e   0x08000e6e   0x00000002   PAD
    0x08000e70   0x08000e70   0x00000010   Code   RO          115    .text.Key_DebounceService_10ms  debounce_key.o
    0x08000e80   0x08000e80   0x00000058   Code   RO          119    .text.Key_EdgeDetect  debounce_key.o
    0x08000ed8   0x08000ed8   0x00000010   Code   RO          117    .text.Key_Init      debounce_key.o
    0x08000ee8   0x08000ee8   0x00000060   Code   RO          113    .text.Key_Scand     debounce_key.o
    0x08000f48   0x08000f48   0x00000022   Code   RO          736    .text.LED_PWM_Set   py32f0xx_bsp_tim.o
    0x08000f6a   0x08000f6a   0x00000002   PAD
    0x08000f6c   0x08000f6c   0x0000001c   Code   RO          572    .text.LL_APB1_GRP1_EnableClock  py32f0xx_bsp_i2c.o
    0x08000f88   0x08000f88   0x00000020   Code   RO          691    .text.LL_APB1_GRP1_EnableClock  py32f0xx_bsp_rcc.o
    0x08000fa8   0x08000fa8   0x00000010   Code   RO          574    .text.LL_APB1_GRP1_ForceReset  py32f0xx_bsp_i2c.o
    0x08000fb8   0x08000fb8   0x00000014   Code   RO          576    .text.LL_APB1_GRP1_ReleaseReset  py32f0xx_bsp_i2c.o
    0x08000fcc   0x08000fcc   0x00000018   Code   RO          689    .text.LL_APB1_GRP2_EnableClock  py32f0xx_bsp_rcc.o
    0x08000fe4   0x08000fe4   0x0000001c   Code   RO          728    .text.LL_APB1_GRP2_EnableClock  py32f0xx_bsp_tim.o
    0x08001000   0x08001000   0x00000020   Code   RO          750    .text.LL_APB1_GRP2_EnableClock  py32f0xx_bsp_usart.o
    0x08001020   0x08001020   0x00000008   Code   RO          541    .text.LL_EXTI_ClearFlag  py32f0xx_bsp_exti.o
    0x08001028   0x08001028   0x0000000c   Code   RO          204    .text.LL_EXTI_DisableEvent  py32f0xx_ll_exti.o
    0x08001034   0x08001034   0x0000000c   Code   RO          212    .text.LL_EXTI_DisableFallingTrig  py32f0xx_ll_exti.o
    0x08001040   0x08001040   0x0000000c   Code   RO          208    .text.LL_EXTI_DisableIT  py32f0xx_ll_exti.o
    0x0800104c   0x0800104c   0x0000000c   Code   RO          216    .text.LL_EXTI_DisableRisingTrig  py32f0xx_ll_exti.o
    0x08001058   0x08001058   0x00000010   Code   RO          210    .text.LL_EXTI_EnableEvent  py32f0xx_ll_exti.o
    0x08001068   0x08001068   0x00000010   Code   RO          218    .text.LL_EXTI_EnableFallingTrig  py32f0xx_ll_exti.o
    0x08001078   0x08001078   0x00000010   Code   RO          206    .text.LL_EXTI_EnableIT  py32f0xx_ll_exti.o
    0x08001088   0x08001088   0x00000010   Code   RO          214    .text.LL_EXTI_EnableRisingTrig  py32f0xx_ll_exti.o
    0x08001098   0x08001098   0x00000098   Code   RO          202    .text.LL_EXTI_Init  py32f0xx_ll_exti.o
    0x08001130   0x08001130   0x00000014   Code   RO          539    .text.LL_EXTI_IsActiveFlag  py32f0xx_bsp_exti.o
    0x08001144   0x08001144   0x00000024   Code   RO          531    .text.LL_EXTI_SetEXTISource  py32f0xx_bsp_exti.o
    0x08001168   0x08001168   0x00000010   Code   RO          711    .text.LL_FLASH_SetLatency  py32f0xx_bsp_rcc.o
    0x08001178   0x08001178   0x00000080   Code   RO          236    .text.LL_GPIO_Init  py32f0xx_ll_gpio.o
    0x080011f8   0x080011f8   0x0000000c   Code   RO           72    .text.LL_GPIO_IsInputPinSet  main.o
    0x08001204   0x08001204   0x00000010   Code   RO          123    .text.LL_GPIO_IsInputPinSet  debounce_key.o
    0x08001214   0x08001214   0x00000010   Code   RO          630    .text.LL_GPIO_IsInputPinSet  py32f0xx_bsp_i2c.o
    0x08001224   0x08001224   0x00000008   Code   RO           64    .text.LL_GPIO_ResetOutputPin  main.o
    0x0800122c   0x0800122c   0x0000000c   Code   RO          559    .text.LL_GPIO_ResetOutputPin  py32f0xx_bsp_gpio.o
    0x08001238   0x08001238   0x0000000c   Code   RO          626    .text.LL_GPIO_ResetOutputPin  py32f0xx_bsp_i2c.o
    0x08001244   0x08001244   0x00000014   Code   RO          244    .text.LL_GPIO_SetAFPin_0_7  py32f0xx_ll_gpio.o
    0x08001258   0x08001258   0x00000018   Code   RO          776    .text.LL_GPIO_SetAFPin_0_7  py32f0xx_bsp_usart.o
    0x08001270   0x08001270   0x00000016   Code   RO          246    .text.LL_GPIO_SetAFPin_8_15  py32f0xx_ll_gpio.o
    0x08001286   0x08001286   0x00000002   PAD
    0x08001288   0x08001288   0x0000000c   Code   RO           66    .text.LL_GPIO_SetOutputPin  main.o
    0x08001294   0x08001294   0x0000000c   Code   RO          628    .text.LL_GPIO_SetOutputPin  py32f0xx_bsp_i2c.o
    0x080012a0   0x080012a0   0x00000012   Code   RO          238    .text.LL_GPIO_SetPinMode  py32f0xx_ll_gpio.o
    0x080012b2   0x080012b2   0x00000016   Code   RO          770    .text.LL_GPIO_SetPinMode  py32f0xx_bsp_usart.o
    0x080012c8   0x080012c8   0x0000000c   Code   RO          248    .text.LL_GPIO_SetPinOutputType  py32f0xx_ll_gpio.o
    0x080012d4   0x080012d4   0x00000012   Code   RO          242    .text.LL_GPIO_SetPinPull  py32f0xx_ll_gpio.o
    0x080012e6   0x080012e6   0x00000002   PAD
    0x080012e8   0x080012e8   0x00000018   Code   RO          774    .text.LL_GPIO_SetPinPull  py32f0xx_bsp_usart.o
    0x08001300   0x08001300   0x00000012   Code   RO          240    .text.LL_GPIO_SetPinSpeed  py32f0xx_ll_gpio.o
    0x08001312   0x08001312   0x00000002   PAD
    0x08001314   0x08001314   0x00000014   Code   RO          772    .text.LL_GPIO_SetPinSpeed  py32f0xx_bsp_usart.o
    0x08001328   0x08001328   0x0000000e   Code   RO          276    .text.LL_I2C_AcknowledgeNextData  py32f0xx_ll_i2c.o
    0x08001336   0x08001336   0x00000002   PAD
    0x08001338   0x08001338   0x00000010   Code   RO          618    .text.LL_I2C_AcknowledgeNextData  py32f0xx_bsp_i2c.o
    0x08001348   0x08001348   0x00000014   Code   RO          608    .text.LL_I2C_ClearFlag_ADDR  py32f0xx_bsp_i2c.o
    0x0800135c   0x0800135c   0x00000010   Code   RO          652    .text.LL_I2C_ClearFlag_AF  py32f0xx_bsp_i2c.o
    0x0800136c   0x0800136c   0x00000010   Code   RO          656    .text.LL_I2C_ClearFlag_BERR  py32f0xx_bsp_i2c.o
    0x0800137c   0x0800137c   0x000000a4   Code   RO          270    .text.LL_I2C_ConfigSpeed  py32f0xx_ll_i2c.o
    0x08001420   0x08001420   0x0000000a   Code   RO          268    .text.LL_I2C_Disable  py32f0xx_ll_i2c.o
    0x0800142a   0x0800142a   0x00000002   PAD
    0x0800142c   0x0800142c   0x00000010   Code   RO          596    .text.LL_I2C_DisableBitPOS  py32f0xx_bsp_i2c.o
    0x0800143c   0x0800143c   0x00000010   Code   RO          588    .text.LL_I2C_DisableIT_BUF  py32f0xx_bsp_i2c.o
    0x0800144c   0x0800144c   0x00000010   Code   RO          590    .text.LL_I2C_DisableIT_EVT  py32f0xx_bsp_i2c.o
    0x0800145c   0x0800145c   0x00000010   Code   RO          644    .text.LL_I2C_DisableIT_RX  py32f0xx_bsp_i2c.o
    0x0800146c   0x0800146c   0x00000010   Code   RO          646    .text.LL_I2C_DisableIT_TX  py32f0xx_bsp_i2c.o
    0x0800147c   0x0800147c   0x00000010   Code   RO          580    .text.LL_I2C_DisableReset  py32f0xx_bsp_i2c.o
    0x0800148c   0x0800148c   0x0000000a   Code   RO          274    .text.LL_I2C_Enable  py32f0xx_ll_i2c.o
    0x08001496   0x08001496   0x00000002   PAD
    0x08001498   0x08001498   0x00000010   Code   RO          586    .text.LL_I2C_EnableIT_ERR  py32f0xx_bsp_i2c.o
    0x080014a8   0x080014a8   0x00000010   Code   RO          648    .text.LL_I2C_EnableIT_RX  py32f0xx_bsp_i2c.o
    0x080014b8   0x080014b8   0x00000014   Code   RO          638    .text.LL_I2C_EnableIT_TX  py32f0xx_bsp_i2c.o
    0x080014cc   0x080014cc   0x00000010   Code   RO          578    .text.LL_I2C_EnableReset  py32f0xx_bsp_i2c.o
    0x080014dc   0x080014dc   0x00000010   Code   RO          598    .text.LL_I2C_GenerateStartCondition  py32f0xx_bsp_i2c.o
    0x080014ec   0x080014ec   0x00000014   Code   RO          606    .text.LL_I2C_GenerateStopCondition  py32f0xx_bsp_i2c.o
    0x08001500   0x08001500   0x0000003a   Code   RO          266    .text.LL_I2C_Init   py32f0xx_ll_i2c.o
    0x0800153a   0x0800153a   0x00000002   PAD
    0x0800153c   0x0800153c   0x0000000c   Code   RO          604    .text.LL_I2C_IsActiveFlag_ADDR  py32f0xx_bsp_i2c.o
    0x08001548   0x08001548   0x0000000c   Code   RO          650    .text.LL_I2C_IsActiveFlag_AF  py32f0xx_bsp_i2c.o
    0x08001554   0x08001554   0x0000000c   Code   RO          654    .text.LL_I2C_IsActiveFlag_BERR  py32f0xx_bsp_i2c.o
    0x08001560   0x08001560   0x0000000c   Code   RO          614    .text.LL_I2C_IsActiveFlag_BTF  py32f0xx_bsp_i2c.o
    0x0800156c   0x0800156c   0x00000010   Code   RO          594    .text.LL_I2C_IsActiveFlag_BUSY  py32f0xx_bsp_i2c.o
    0x0800157c   0x0800157c   0x0000000c   Code   RO          622    .text.LL_I2C_IsActiveFlag_RXNE  py32f0xx_bsp_i2c.o
    0x08001588   0x08001588   0x0000000c   Code   RO          600    .text.LL_I2C_IsActiveFlag_SB  py32f0xx_bsp_i2c.o
    0x08001594   0x08001594   0x00000010   Code   RO          612    .text.LL_I2C_IsActiveFlag_TXE  py32f0xx_bsp_i2c.o
    0x080015a4   0x080015a4   0x00000008   Code   RO          624    .text.LL_I2C_ReceiveData8  py32f0xx_bsp_i2c.o
    0x080015ac   0x080015ac   0x0000000c   Code   RO          272    .text.LL_I2C_SetOwnAddress1  py32f0xx_ll_i2c.o
    0x080015b8   0x080015b8   0x00000014   Code   RO          602    .text.LL_I2C_TransmitData8  py32f0xx_bsp_i2c.o
    0x080015cc   0x080015cc   0x00000018   Code   RO          557    .text.LL_IOP_GRP1_EnableClock  py32f0xx_bsp_gpio.o
    0x080015e4   0x080015e4   0x0000001c   Code   RO          768    .text.LL_IOP_GRP1_EnableClock  py32f0xx_bsp_usart.o
    0x08001600   0x08001600   0x00000014   Code   RO          707    .text.LL_InitTick   py32f0xx_bsp_rcc.o
    0x08001614   0x08001614   0x0000000c   Code   RO          670    .text.LL_LPM_DisableEventOnPend  py32f0xx_bsp_pwr.o
    0x08001620   0x08001620   0x0000000c   Code   RO          676    .text.LL_LPM_DisableSleepOnExit  py32f0xx_bsp_pwr.o
    0x0800162c   0x0800162c   0x0000000c   Code   RO           76    .text.LL_LPM_EnableDeepSleep  main.o
    0x08001638   0x08001638   0x0000000c   Code   RO           80    .text.LL_LPM_EnableSleep  main.o
    0x08001644   0x08001644   0x00000010   Code   RO          678    .text.LL_LPM_EnableSleep  py32f0xx_bsp_pwr.o
    0x08001654   0x08001654   0x00000010   Code   RO          674    .text.LL_PWR_EnableLowPowerRunMode  py32f0xx_bsp_pwr.o
    0x08001664   0x08001664   0x00000014   Code   RO          672    .text.LL_PWR_SetRegulVoltageScaling  py32f0xx_bsp_pwr.o
    0x08001678   0x08001678   0x0000000c   Code   RO          379    .text.LL_RCC_GetAHBPrescaler  py32f0xx_ll_rcc.o
    0x08001684   0x08001684   0x0000000c   Code   RO          381    .text.LL_RCC_GetAPB1Prescaler  py32f0xx_ll_rcc.o
    0x08001690   0x08001690   0x0000000c   Code   RO          377    .text.LL_RCC_GetHSIDiv  py32f0xx_ll_rcc.o
    0x0800169c   0x0800169c   0x0000000c   Code   RO          329    .text.LL_RCC_GetSysClkSource  py32f0xx_ll_rcc.o
    0x080016a8   0x080016a8   0x0000000c   Code   RO          703    .text.LL_RCC_GetSysClkSource  py32f0xx_bsp_rcc.o
    0x080016b4   0x080016b4   0x00000018   Code   RO          335    .text.LL_RCC_GetSystemClocksFreq  py32f0xx_ll_rcc.o
    0x080016cc   0x080016cc   0x00000010   Code   RO          715    .text.LL_RCC_HSE_Disable  py32f0xx_bsp_rcc.o
    0x080016dc   0x080016dc   0x00000010   Code   RO          693    .text.LL_RCC_HSI_Enable  py32f0xx_bsp_rcc.o
    0x080016ec   0x080016ec   0x00000014   Code   RO          347    .text.LL_RCC_HSI_GetFreq  py32f0xx_ll_rcc.o
    0x08001700   0x08001700   0x00000010   Code   RO          697    .text.LL_RCC_HSI_IsReady  py32f0xx_bsp_rcc.o
    0x08001710   0x08001710   0x00000018   Code   RO          695    .text.LL_RCC_HSI_SetCalibFreq  py32f0xx_bsp_rcc.o
    0x08001728   0x08001728   0x00000010   Code   RO          713    .text.LL_RCC_LSE_Disable  py32f0xx_bsp_rcc.o
    0x08001738   0x08001738   0x00000010   Code   RO          717    .text.LL_RCC_LSI_Disable  py32f0xx_bsp_rcc.o
    0x08001748   0x08001748   0x00000010   Code   RO          383    .text.LL_RCC_PLL_GetMainSource  py32f0xx_ll_rcc.o
    0x08001758   0x08001758   0x00000010   Code   RO          699    .text.LL_RCC_SetAHBPrescaler  py32f0xx_bsp_rcc.o
    0x08001768   0x08001768   0x00000010   Code   RO          705    .text.LL_RCC_SetAPB1Prescaler  py32f0xx_bsp_rcc.o
    0x08001778   0x08001778   0x00000010   Code   RO          701    .text.LL_RCC_SetSysClkSource  py32f0xx_bsp_rcc.o
    0x08001788   0x08001788   0x0000000c   Code   RO           74    .text.LL_SYSTICK_DisableIT  main.o
    0x08001794   0x08001794   0x0000000c   Code   RO           78    .text.LL_SYSTICK_EnableIT  main.o
    0x080017a0   0x080017a0   0x00000010   Code   RO          709    .text.LL_SYSTICK_EnableIT  py32f0xx_bsp_rcc.o
    0x080017b0   0x080017b0   0x0000000c   Code   RO          475    .text.LL_SetSystemCoreClock  py32f0xx_ll_utils.o
    0x080017bc   0x080017bc   0x00000014   Code   RO          730    .text.LL_TIM_EnableAllOutputs  py32f0xx_bsp_tim.o
    0x080017d0   0x080017d0   0x0000000c   Code   RO          732    .text.LL_TIM_EnableCounter  py32f0xx_bsp_tim.o
    0x080017dc   0x080017dc   0x0000000a   Code   RO          413    .text.LL_TIM_GenerateEvent_UPDATE  py32f0xx_ll_tim.o
    0x080017e6   0x080017e6   0x00000002   PAD
    0x080017e8   0x080017e8   0x00000094   Code   RO          405    .text.LL_TIM_Init   py32f0xx_ll_tim.o
    0x0800187c   0x0800187c   0x00000050   Code   RO          417    .text.LL_TIM_OC_Init  py32f0xx_ll_tim.o
    0x080018cc   0x080018cc   0x00000004   Code   RO          455    .text.LL_TIM_OC_SetCompareCH1  py32f0xx_ll_tim.o
    0x080018d0   0x080018d0   0x0000000c   Code   RO          738    .text.LL_TIM_OC_SetCompareCH1  py32f0xx_bsp_tim.o
    0x080018dc   0x080018dc   0x00000004   Code   RO          449    .text.LL_TIM_OC_SetCompareCH2  py32f0xx_ll_tim.o
    0x080018e0   0x080018e0   0x00000004   Code   RO          457    .text.LL_TIM_OC_SetCompareCH3  py32f0xx_ll_tim.o
    0x080018e4   0x080018e4   0x00000004   Code   RO          459    .text.LL_TIM_OC_SetCompareCH4  py32f0xx_ll_tim.o
    0x080018e8   0x080018e8   0x00000004   Code   RO          407    .text.LL_TIM_SetAutoReload  py32f0xx_ll_tim.o
    0x080018ec   0x080018ec   0x00000004   Code   RO          409    .text.LL_TIM_SetPrescaler  py32f0xx_ll_tim.o
    0x080018f0   0x080018f0   0x00000004   Code   RO          411    .text.LL_TIM_SetRepetitionCounter  py32f0xx_ll_tim.o
    0x080018f4   0x080018f4   0x00000014   Code   RO          820    .text.LL_USART_ClearFlag_FE  py32f0xx_bsp_usart.o
    0x08001908   0x08001908   0x00000014   Code   RO          828    .text.LL_USART_ClearFlag_NE  py32f0xx_bsp_usart.o
    0x0800191c   0x0800191c   0x00000014   Code   RO          824    .text.LL_USART_ClearFlag_ORE  py32f0xx_bsp_usart.o
    0x08001930   0x08001930   0x00000014   Code   RO          816    .text.LL_USART_ClearFlag_PE  py32f0xx_bsp_usart.o
    0x08001944   0x08001944   0x0000000c   Code   RO          766    .text.LL_USART_ClearFlag_TC  py32f0xx_bsp_usart.o
    0x08001950   0x08001950   0x0000000c   Code   RO          808    .text.LL_USART_DisableIT_TXE  py32f0xx_bsp_usart.o
    0x0800195c   0x0800195c   0x00000010   Code   RO          764    .text.LL_USART_Enable  py32f0xx_bsp_usart.o
    0x0800196c   0x0800196c   0x0000000c   Code   RO          780    .text.LL_USART_EnableIT_ERROR  py32f0xx_bsp_usart.o
    0x08001978   0x08001978   0x00000010   Code   RO          778    .text.LL_USART_EnableIT_PE  py32f0xx_bsp_usart.o
    0x08001988   0x08001988   0x0000000c   Code   RO          782    .text.LL_USART_EnableIT_RXNE  py32f0xx_bsp_usart.o
    0x08001994   0x08001994   0x0000000c   Code   RO          794    .text.LL_USART_EnableIT_TXE  py32f0xx_bsp_usart.o
    0x080019a0   0x080019a0   0x0000000c   Code   RO          818    .text.LL_USART_IsActiveFlag_FE  py32f0xx_bsp_usart.o
    0x080019ac   0x080019ac   0x0000000c   Code   RO          826    .text.LL_USART_IsActiveFlag_NE  py32f0xx_bsp_usart.o
    0x080019b8   0x080019b8   0x0000000c   Code   RO          822    .text.LL_USART_IsActiveFlag_ORE  py32f0xx_bsp_usart.o
    0x080019c4   0x080019c4   0x0000000c   Code   RO          814    .text.LL_USART_IsActiveFlag_PE  py32f0xx_bsp_usart.o
    0x080019d0   0x080019d0   0x0000000c   Code   RO          810    .text.LL_USART_IsActiveFlag_RXNE  py32f0xx_bsp_usart.o
    0x080019dc   0x080019dc   0x00000010   Code   RO          806    .text.LL_USART_IsActiveFlag_TXE  py32f0xx_bsp_usart.o
    0x080019ec   0x080019ec   0x0000000c   Code   RO          790    .text.LL_USART_IsEnabledIT_TXE  py32f0xx_bsp_usart.o
    0x080019f8   0x080019f8   0x00000008   Code   RO          812    .text.LL_USART_ReceiveData8  py32f0xx_bsp_usart.o
    0x08001a00   0x08001a00   0x00000044   Code   RO          752    .text.LL_USART_SetBaudRate  py32f0xx_bsp_usart.o
    0x08001a44   0x08001a44   0x00000010   Code   RO          754    .text.LL_USART_SetDataWidth  py32f0xx_bsp_usart.o
    0x08001a54   0x08001a54   0x00000014   Code   RO          760    .text.LL_USART_SetHWFlowCtrl  py32f0xx_bsp_usart.o
    0x08001a68   0x08001a68   0x00000010   Code   RO          758    .text.LL_USART_SetParity  py32f0xx_bsp_usart.o
    0x08001a78   0x08001a78   0x00000014   Code   RO          756    .text.LL_USART_SetStopBitsLength  py32f0xx_bsp_usart.o
    0x08001a8c   0x08001a8c   0x00000010   Code   RO          762    .text.LL_USART_SetTransferDirection  py32f0xx_bsp_usart.o
    0x08001a9c   0x08001a9c   0x0000000c   Code   RO          792    .text.LL_USART_TransmitData8  py32f0xx_bsp_usart.o
    0x08001aa8   0x08001aa8   0x00000028   Code   RO          473    .text.LL_mDelay     py32f0xx_ll_utils.o
    0x08001ad0   0x08001ad0   0x00000002   Code   RO           30    .text.NMI_Handler   py32f0xx_it.o
    0x08001ad2   0x08001ad2   0x00000002   PAD
    0x08001ad4   0x08001ad4   0x00000088   Code   RO          419    .text.OC1Config     py32f0xx_ll_tim.o
    0x08001b5c   0x08001b5c   0x00000098   Code   RO          421    .text.OC2Config     py32f0xx_ll_tim.o
    0x08001bf4   0x08001bf4   0x00000094   Code   RO          423    .text.OC3Config     py32f0xx_ll_tim.o
    0x08001c88   0x08001c88   0x0000007c   Code   RO          425    .text.OC4Config     py32f0xx_ll_tim.o
    0x08001d04   0x08001d04   0x00000002   Code   RO           36    .text.PendSV_Handler  py32f0xx_it.o
    0x08001d06   0x08001d06   0x00000002   PAD
    0x08001d08   0x08001d08   0x00000020   Code   RO          339    .text.RCC_GetHCLKClockFreq  py32f0xx_ll_rcc.o
    0x08001d28   0x08001d28   0x00000020   Code   RO          341    .text.RCC_GetPCLK1ClockFreq  py32f0xx_ll_rcc.o
    0x08001d48   0x08001d48   0x00000054   Code   RO          337    .text.RCC_GetSystemClockFreq  py32f0xx_ll_rcc.o
    0x08001d9c   0x08001d9c   0x0000001c   Code   RO          349    .text.RCC_PLL_GetFreqDomain_SYS  py32f0xx_ll_rcc.o
    0x08001db8   0x08001db8   0x00000002   Code   RO           34    .text.SVC_Handler   py32f0xx_it.o
    0x08001dba   0x08001dba   0x00000002   PAD
    0x08001dbc   0x08001dbc   0x00000114   Code   RO          869    .text.SW6306_ADCLoad  sw6306.o
    0x08001ed0   0x08001ed0   0x00000068   Code   RO          867    .text.SW6306_ADCRead  sw6306.o
    0x08001f38   0x08001f38   0x00000060   Code   RO          865    .text.SW6306_ByteModify  sw6306.o
    0x08001f98   0x08001f98   0x00000050   Code   RO          861    .text.SW6306_ByteRead  sw6306.o
    0x08001fe8   0x08001fe8   0x0000002c   Code   RO          859    .text.SW6306_ByteWrite  sw6306.o
    0x08002014   0x08002014   0x000000c4   Code   RO          935    .text.SW6306_CapacityLoad  sw6306.o
    0x080020d8   0x080020d8   0x00000044   Code   RO          943    .text.SW6306_Click  sw6306.o
    0x0800211c   0x0800211c   0x00000058   Code   RO          945    .text.SW6306_ForceOff  sw6306.o
    0x08002174   0x08002174   0x00000320   Code   RO          871    .text.SW6306_Init   sw6306.o
    0x08002494   0x08002494   0x00000010   Code   RO          919    .text.SW6306_IsBatteryDepleted  sw6306.o
    0x080024a4   0x080024a4   0x0000000c   Code   RO          913    .text.SW6306_IsCharging  sw6306.o
    0x080024b0   0x080024b0   0x0000000c   Code   RO          915    .text.SW6306_IsDischarging  sw6306.o
    0x080024bc   0x080024bc   0x0000000c   Code   RO          917    .text.SW6306_IsFullCharged  sw6306.o
    0x080024c8   0x080024c8   0x00000028   Code   RO          955    .text.SW6306_IsInitialized  sw6306.o
    0x080024f0   0x080024f0   0x00000018   Code   RO          931    .text.SW6306_IsOverHeated  sw6306.o
    0x08002508   0x08002508   0x0000000c   Code   RO          893    .text.SW6306_IsPortA1ON  sw6306.o
    0x08002514   0x08002514   0x0000000c   Code   RO          895    .text.SW6306_IsPortA2ON  sw6306.o
    0x08002520   0x08002520   0x0000000c   Code   RO          889    .text.SW6306_IsPortC1ON  sw6306.o
    0x0800252c   0x0800252c   0x0000000c   Code   RO          891    .text.SW6306_IsPortC2ON  sw6306.o
    0x08002538   0x08002538   0x00000048   Code   RO          949    .text.SW6306_LPSet  sw6306.o
    0x08002580   0x08002580   0x000000a0   Code   RO          887    .text.SW6306_PortStatusLoad  sw6306.o
    0x08002620   0x08002620   0x000000f4   Code   RO          897    .text.SW6306_PowerLoad  sw6306.o
    0x08002714   0x08002714   0x00000008   Code   RO          937    .text.SW6306_ReadCapacity  sw6306.o
    0x0800271c   0x0800271c   0x00000008   Code   RO          879    .text.SW6306_ReadIBAT  sw6306.o
    0x08002724   0x08002724   0x00000008   Code   RO          875    .text.SW6306_ReadIBUS  sw6306.o
    0x0800272c   0x0800272c   0x0000002c   Code   RO          883    .text.SW6306_ReadTCHIP  sw6306.o
    0x08002758   0x08002758   0x00000010   Code   RO          881    .text.SW6306_ReadTNTC  sw6306.o
    0x08002768   0x08002768   0x00000008   Code   RO          877    .text.SW6306_ReadVBAT  sw6306.o
    0x08002770   0x08002770   0x00000008   Code   RO          873    .text.SW6306_ReadVBUS  sw6306.o
    0x08002778   0x08002778   0x0000006c   Code   RO          863    .text.SW6306_RegsetSwitch  sw6306.o
    0x080027e4   0x080027e4   0x00000104   Code   RO          907    .text.SW6306_StatusLoad  sw6306.o
    0x080028e8   0x080028e8   0x00000094   Code   RO          947    .text.SW6306_Unlock  sw6306.o
    0x0800297c   0x0800297c   0x00000028   Code   RO           48    .text.SysInit       bsp_py32f030x6.o
    0x080029a4   0x080029a4   0x00000010   Code   RO           38    .text.SysTick_Handler  py32f0xx_it.o
    0x080029b4   0x080029b4   0x00000030   Code   RO           13    .text.SystemInit    system_py32f0xx.o
    0x080029e4   0x080029e4   0x000000ac   Code   RO          804    .text.USART1_IRQHandler  py32f0xx_bsp_usart.o
    0x08002a90   0x08002a90   0x0000004c   Code   RO          802    .text.USART_bufread  py32f0xx_bsp_usart.o
    0x08002adc   0x08002adc   0x00000080   Code   RO          788    .text.USART_bufsend  py32f0xx_bsp_usart.o
    0x08002b5c   0x08002b5c   0x00000024   Code   RO          798    .text.USART_getvalidnum  py32f0xx_bsp_usart.o
    0x08002b80   0x08002b80   0x00000010   Code   RO          535    .text.__NVIC_EnableIRQ  py32f0xx_bsp_exti.o
    0x08002b90   0x08002b90   0x0000000c   Code   RO          584    .text.__NVIC_EnableIRQ  py32f0xx_bsp_i2c.o
    0x08002b9c   0x08002b9c   0x00000010   Code   RO          786    .text.__NVIC_EnableIRQ  py32f0xx_bsp_usart.o
    0x08002bac   0x08002bac   0x0000001c   Code   RO          533    .text.__NVIC_SetPriority  py32f0xx_bsp_exti.o
    0x08002bc8   0x08002bc8   0x00000014   Code   RO          582    .text.__NVIC_SetPriority  py32f0xx_bsp_i2c.o
    0x08002bdc   0x08002bdc   0x00000018   Code   RO          784    .text.__NVIC_SetPriority  py32f0xx_bsp_usart.o
    0x08002bf4   0x08002bf4   0x0000001c   Code   RO           58    .text.__NVIC_SystemReset  main.o
    0x08002c10   0x08002c10   0x000000f8   Code   RO           70    .text.main          main.o
    0x08002d08   0x08002d08   0x000003ec   Code   RO           56    .text.thread_app    main.o
    0x080030f4   0x080030f4   0x00000046   Code   RO           60    .text.thread_echo   main.o
    0x0800313a   0x0800313a   0x00000002   PAD
    0x0800313c   0x0800313c   0x00000228   Code   RO           62    .text.thread_key    main.o
    0x08003364   0x08003364   0x0000005c   Code   RO           68    .text.thread_trig   main.o
    0x080033c0   0x080033c0   0x0000002c   Code   RO          840    .text.uprintf       py32f0xx_bsp_usart.o
    0x080033ec   0x080033ec   0x00000024   Code   RO          999    i.__0vsprintf       mc_p.l(printfa.o)
    0x08003410   0x08003410   0x0000002e   Code   RO         1068    i.__ARM_clz         mf_p.l(depilogue.o)
    0x0800343e   0x0800343e   0x0000000e   Code   RO         1088    i.__scatterload_copy  mc_p.l(handlers.o)
    0x0800344c   0x0800344c   0x00000002   Code   RO         1089    i.__scatterload_null  mc_p.l(handlers.o)
    0x0800344e   0x0800344e   0x0000000e   Code   RO         1090    i.__scatterload_zeroinit  mc_p.l(handlers.o)
    0x0800345c   0x0800345c   0x00000174   Code   RO         1000    i._fp_digits        mc_p.l(printfa.o)
    0x080035d0   0x080035d0   0x000006ec   Code   RO         1001    i._printf_core      mc_p.l(printfa.o)
    0x08003cbc   0x08003cbc   0x00000020   Code   RO         1002    i._printf_post_padding  mc_p.l(printfa.o)
    0x08003cdc   0x08003cdc   0x0000002c   Code   RO         1003    i._printf_pre_padding  mc_p.l(printfa.o)
    0x08003d08   0x08003d08   0x0000000a   Code   RO         1005    i._sputc            mc_p.l(printfa.o)
    0x08003d12   0x08003d12   0x00000002   PAD
    0x08003d14   0x08003d14   0x00000040   Data   RO           18    .rodata.AHBPrescTable  system_py32f0xx.o
    0x08003d54   0x08003d54   0x00000020   Data   RO           19    .rodata.APBPrescTable  system_py32f0xx.o
    0x08003d74   0x08003d74   0x00000020   Data   RO           20    .rodata.HSIFreqTable  system_py32f0xx.o
    0x08003d94   0x08003d94   0x000000c5   Data   RO           87    .rodata.str1.1      main.o
    0x08003e59   0x08003e59   0x00000003   PAD
    0x08003e5c   0x08003e5c   0x00000020   Data   RO         1087    Region$$Table       anon$$obj.o


    Execution Region RW_IRAM1 (Exec base: 0x20000000, Load base: 0x08003e80, Size: 0x00000670, Max: 0x00001000, ABSOLUTE)

    Exec Addr    Load Addr    Size         Type   Attr      Idx    E Section Name        Object

    0x20000000   0x08003e80   0x000000c0   Data   RW           21    .ARM.__at_0x20000000  system_py32f0xx.o
    0x200000c0   0x08003f40   0x00000004   Data   RW           17    .data.SystemCoreClock  system_py32f0xx.o
    0x200000c4   0x08003f44   0x00000001   Data   RW          847    .data.rx_rd_index   py32f0xx_bsp_usart.o
    0x200000c5   0x08003f45   0x00000001   Data   RW          843    .data.tx_rd_index   py32f0xx_bsp_usart.o
    0x200000c6   0x08003f46   0x00000002   PAD
    0x200000c8        -       0x00000010   Zero   RW          658    .bss.I2C1_Status    py32f0xx_bsp_i2c.o
    0x200000d8        -       0x00000005   Zero   RW          126    .bss.KeyValue_Array  debounce_key.o
    0x200000dd        -       0x00000001   Zero   RW          962    .bss.SW6306_ADCLoad.swld_steps  sw6306.o
    0x200000de        -       0x00000001   Zero   RW          961    .bss.SW6306_ADCRead.sw_steps  sw6306.o
    0x200000df        -       0x00000001   Zero   RW          960    .bss.SW6306_ByteModify.swmd_steps  sw6306.o
    0x200000e0        -       0x00000001   Zero   RW          958    .bss.SW6306_ByteRead.swrd_steps  sw6306.o
    0x200000e1        -       0x00000001   Zero   RW          966    .bss.SW6306_CapacityLoad.steps  sw6306.o
    0x200000e2        -       0x00000001   Zero   RW          967    .bss.SW6306_Click.steps  sw6306.o
    0x200000e3        -       0x00000001   Zero   RW          968    .bss.SW6306_ForceOff.steps  sw6306.o
    0x200000e4        -       0x00000001   Zero   RW          973    .bss.SW6306_Init.steps  sw6306.o
    0x200000e5        -       0x00000001   Zero   RW          970    .bss.SW6306_LPSet.steps  sw6306.o
    0x200000e6        -       0x00000001   Zero   RW          963    .bss.SW6306_PortStatusLoad.steps  sw6306.o
    0x200000e7        -       0x00000001   Zero   RW          964    .bss.SW6306_PowerLoad.steps  sw6306.o
    0x200000e8        -       0x00000001   Zero   RW          959    .bss.SW6306_RegsetSwitch.steps  sw6306.o
    0x200000e9   0x08003f46   0x00000003   PAD
    0x200000ec        -       0x00000030   Zero   RW          957    .bss.SW6306_Status  sw6306.o
    0x2000011c        -       0x00000001   Zero   RW          965    .bss.SW6306_StatusLoad.steps  sw6306.o
    0x2000011d        -       0x00000001   Zero   RW          969    .bss.SW6306_Unlock.steps  sw6306.o
    0x2000011e        -       0x00000020   Zero   RW          848    .bss.USART_rx_buffer  py32f0xx_bsp_usart.o
    0x2000013e        -       0x00000100   Zero   RW          844    .bss.USART_tx_buffer  py32f0xx_bsp_usart.o
    0x2000023e        -       0x00000002   Zero   RW           86    .bss.cd_sleep       main.o
    0x20000240        -       0x00000001   Zero   RW           88    .bss.forceoff       main.o
    0x20000241   0x08003f46   0x00000003   PAD
    0x20000244        -       0x00000004   Zero   RW          659    .bss.i2cwdtovf      py32f0xx_bsp_i2c.o
    0x20000248        -       0x00000001   Zero   RW          545    .bss.inttrig        py32f0xx_bsp_exti.o
    0x20000249        -       0x00000001   Zero   RW          546    .bss.keytrig        py32f0xx_bsp_exti.o
    0x2000024a        -       0x00000001   Zero   RW           85    .bss.main_looping   main.o
    0x2000024b   0x08003f46   0x00000001   PAD
    0x2000024c        -       0x00000004   Zero   RW           40    .bss.millis         py32f0xx_it.o
    0x20000250        -       0x00000002   Zero   RW           97    .bss.pt1            main.o
    0x20000252        -       0x00000002   Zero   RW           98    .bss.pt2            main.o
    0x20000254        -       0x00000002   Zero   RW           99    .bss.pt3            main.o
    0x20000256        -       0x00000002   Zero   RW          100    .bss.pt4            main.o
    0x20000258        -       0x00000001   Zero   RW          845    .bss.rx_buf_ovf     py32f0xx_bsp_usart.o
    0x20000259        -       0x00000001   Zero   RW          846    .bss.rx_wr_index    py32f0xx_bsp_usart.o
    0x2000025a   0x08003f46   0x00000002   PAD
    0x2000025c        -       0x00000004   Zero   RW           84    .bss.thread_app.endmillis  main.o
    0x20000260        -       0x00000002   Zero   RW           95    .bss.thread_key.cd_reset  main.o
    0x20000262        -       0x00000001   Zero   RW           90    .bss.thread_key.cnt  main.o
    0x20000263   0x08003f46   0x00000001   PAD
    0x20000264        -       0x00000004   Zero   RW           96    .bss.thread_key.endmillis  main.o
    0x20000268        -       0x00000001   Zero   RW           91    .bss.thread_key.holding  main.o
    0x20000269        -       0x00000001   Zero   RW           93    .bss.thread_key.leddir  main.o
    0x2000026a        -       0x00000001   Zero   RW           94    .bss.thread_key.ledind  main.o
    0x2000026b        -       0x00000001   Zero   RW           92    .bss.thread_key.ledsta  main.o
    0x2000026c        -       0x00000001   Zero   RW           89    .bss.thread_key.step  main.o
    0x2000026d        -       0x00000001   Zero   RW          842    .bss.tx_wr_index    py32f0xx_bsp_usart.o
    0x2000026e   0x08003f46   0x00000002   PAD
    0x20000270        -       0x00000400   Zero   RW            1    STACK               startup_py32f030xx.o


==============================================================================

Image component sizes


      Code (inc. data)   RO Data    RW Data    ZI Data      Debug   Object Name

        40          0          0          0          0        449   bsp_py32f030x6.o
       242          8          0          0          5       3217   debounce_key.o
      2074        656        197          0         28       5440   main.o
       284         28          0          0          2       4092   py32f0xx_bsp_exti.o
       164          4          0          0          0       2239   py32f0xx_bsp_gpio.o
      1604         80          0          0         20      12931   py32f0xx_bsp_i2c.o
       100          8          0          0          0       1864   py32f0xx_bsp_pwr.o
       376         52          0          0          0       4025   py32f0xx_bsp_rcc.o
       226         20          0          0          0       3795   py32f0xx_bsp_tim.o
      1214         84          0          2        291      11317   py32f0xx_bsp_usart.o
        24          4          0          0          4        925   py32f0xx_it.o
       264         20          0          0          0       2951   py32f0xx_ll_exti.o
       236          0          0          0          0       4340   py32f0xx_ll_gpio.o
       268         16          0          0          0       3963   py32f0xx_ll_i2c.o
       284         36          0          0          0       6973   py32f0xx_ll_rcc.o
       826         56          0          0          0      11809   py32f0xx_ll_tim.o
        52          8          0          0          0       6740   py32f0xx_ll_utils.o
        28          8        192          0       1024        644   startup_py32f030xx.o
      3008        210          0          0         62      10095   sw6306.o
        92         24        128        196          0       2392   system_py32f0xx.o

    ----------------------------------------------------------------------
     11436       1322        552        200       1448     100201   Object Totals
         0          0         32          0          0          0   (incl. Generated)
        30          0          3          2         12          0   (incl. Padding)

    ----------------------------------------------------------------------

      Code (inc. data)   RO Data    RW Data    ZI Data      Debug   Library Member Name

         0          0          0          0          0          0   entry.o
         0          0          0          0          0          0   entry10a.o
         0          0          0          0          0          0   entry11a.o
         8          4          0          0          0          0   entry2.o
         4          0          0          0          0          0   entry5.o
         0          0          0          0          0          0   entry7b.o
         0          0          0          0          0          0   entry8b.o
         8          4          0          0          0          0   entry9a.o
        30          0          0          0          0          0   handlers.o
        36          8          0          0          0         68   init.o
         0          0          0          0          0          0   iusefp.o
        32          0          0          0          0         68   llshl.o
        38          0          0          0          0         68   llsshr.o
        34          0          0          0          0         68   llushr.o
      2266         96          0          0          0        460   printfa.o
        62          0          0          0          0         72   uidiv_div0.o
        96          0          0          0          0         84   uldiv.o
        40          2          0          0          0         68   cdrcmple.o
        56          0          0          0          0         68   d2f.o
       356          4          0          0          0        140   dadd.o
       240          6          0          0          0         84   ddiv.o
       236          0          0          0          0        216   depilogue.o
        64         10          0          0          0         68   dfixul.o
       208          6          0          0          0         88   dmul.o
        40          0          0          0          0         60   f2d.o
       130          0          0          0          0        144   fepilogue.o
        22          0          0          0          0         68   fflti.o

    ----------------------------------------------------------------------
      4008        140          0          0          0       1892   Library Totals
         2          0          0          0          0          0   (incl. Padding)

    ----------------------------------------------------------------------

      Code (inc. data)   RO Data    RW Data    ZI Data      Debug   Library Name

      2614        112          0          0          0        888   mc_p.l
      1392         28          0          0          0       1004   mf_p.l

    ----------------------------------------------------------------------
      4008        140          0          0          0       1892   Library Totals

    ----------------------------------------------------------------------

==============================================================================


      Code (inc. data)   RO Data    RW Data    ZI Data      Debug   

     15444       1462        552        200       1448     101025   Grand Totals
     15444       1462        552        200       1448     101025   ELF Image Totals
     15444       1462        552        200          0          0   ROM Totals

==============================================================================

    Total RO  Size (Code + RO Data)                15996 (  15.62kB)
    Total RW  Size (RW Data + ZI Data)              1648 (   1.61kB)
    Total ROM Size (Code + RO Data + RW Data)      16196 (  15.82kB)

==============================================================================

